Certificate:
    Data:
        Version: 3 (0x2)
        Serial Number:
            37:fa:a0:9f:95:18:89:a5:12:54:7d:73:ce:5a:cd:7b
    Signature Algorithm: sha256WithRSAEncryption
        Issuer: C=AQ, ST=White, L=D3cktown, O=D3ckasaurusRex, CN=d8c032c90e8bb34b6036514a10e2536d
        Validity
            Not Before: Sep  7 23:31:01 2014 GMT
            Not After : Sep  7 23:31:01 2015 GMT
        Subject: C=AQ, ST=White, L=D3cktown, O=D3ckasaurusRex, CN=c3394e23906e779ef899e4a1b9d7c741
        Subject Public Key Info:
            Public Key Algorithm: rsaEncryption
                Public-Key: (1024 bit)
                Modulus:
                    00:cf:97:c6:da:ca:88:c7:36:d1:43:f1:7b:fd:b4:
                    2f:72:b1:b2:87:63:b3:ee:9a:2f:07:58:60:e5:53:
                    7b:91:20:8a:29:3f:46:6e:1c:1a:bb:e3:9f:4d:c3:
                    51:52:d6:ab:63:94:f5:aa:a3:fb:0a:92:6a:50:35:
                    da:cb:91:d0:45:13:5b:b4:ff:85:19:7a:41:10:df:
                    2e:90:22:33:19:14:68:0d:e0:4f:92:42:35:b5:ee:
                    9e:21:6f:06:ca:5f:19:14:74:67:ad:3c:a5:57:3d:
                    be:33:c9:2e:bd:27:b1:53:9c:95:28:83:1e:d1:89:
                    c2:3e:88:72:b4:e3:f6:c5:5f
                Exponent: 65537 (0x10001)
        X509v3 extensions:
            X509v3 Basic Constraints: 
                CA:FALSE
            Netscape Cert Type: 
                SSL Client
            Netscape Comment: 
                d3ck Client Certificate
            X509v3 Subject Key Identifier: 
                D1:E5:53:68:FF:43:AE:13:D6:A1:D9:8E:D9:BC:3B:6A:C5:0F:23:2F
            X509v3 Authority Key Identifier: 
                keyid:21:D5:51:2E:0D:B2:4C:DC:88:6F:6F:88:7E:C1:96:96:3E:2C:97:3F
                DirName:/C=AQ/ST=White/L=D3cktown/O=D3ckasaurusRex/CN=d8c032c90e8bb34b6036514a10e2536d
                serial:AA:50:B7:B7:FD:13:1D:1B

            X509v3 Extended Key Usage: 
                TLS Web Client Authentication
            X509v3 Key Usage: 
                Digital Signature
    Signature Algorithm: sha256WithRSAEncryption
         4d:8c:6e:4c:22:95:b9:9d:a3:fc:b6:3e:96:de:cb:50:ed:12:
         9c:46:9b:c5:36:32:2b:72:91:90:65:1c:95:01:69:e1:09:f0:
         fe:0b:e0:73:3b:bd:a3:46:6f:d1:b6:c1:ec:5e:ea:98:a5:d1:
         84:03:d6:ae:08:e2:db:d9:94:ff:71:b7:4f:17:31:b8:98:68:
         f7:4d:5e:e9:c7:7d:5c:92:02:e0:57:1a:0c:77:12:6e:bf:00:
         ba:ad:54:df:91:50:1c:4e:0a:01:5b:38:c7:6f:cd:10:10:98:
         42:74:9c:13:ad:8f:73:98:b9:af:25:cb:91:e3:02:ac:fc:f5:
         d4:53
-----BEGIN CERTIFICATE-----
MIIDozCCAwygAwIBAgIQN/qgn5UYiaUSVH1zzlrNezANBgkqhkiG9w0BAQsFADB0
MQswCQYDVQQGEwJBUTEOMAwGA1UECAwFV2hpdGUxETAPBgNVBAcMCEQzY2t0b3du
MRcwFQYDVQQKDA5EM2NrYXNhdXJ1c1JleDEpMCcGA1UEAwwgZDhjMDMyYzkwZThi
YjM0YjYwMzY1MTRhMTBlMjUzNmQwHhcNMTQwOTA3MjMzMTAxWhcNMTUwOTA3MjMz
MTAxWjB0MQswCQYDVQQGEwJBUTEOMAwGA1UECAwFV2hpdGUxETAPBgNVBAcMCEQz
Y2t0b3duMRcwFQYDVQQKDA5EM2NrYXNhdXJ1c1JleDEpMCcGA1UEAwwgYzMzOTRl
MjM5MDZlNzc5ZWY4OTllNGExYjlkN2M3NDEwgZ8wDQYJKoZIhvcNAQEBBQADgY0A
MIGJAoGBAM+XxtrKiMc20UPxe/20L3Kxsodjs+6aLwdYYOVTe5Egiik/Rm4cGrvj
n03DUVLWq2OU9aqj+wqSalA12suR0EUTW7T/hRl6QRDfLpAiMxkUaA3gT5JCNbXu
niFvBspfGRR0Z608pVc9vjPJLr0nsVOclSiDHtGJwj6IcrTj9sVfAgMBAAGjggE0
MIIBMDAJBgNVHRMEAjAAMBEGCWCGSAGG+EIBAQQEAwIHgDAmBglghkgBhvhCAQ0E
GRYXZDNjayBDbGllbnQgQ2VydGlmaWNhdGUwHQYDVR0OBBYEFNHlU2j/Q64T1qHZ
jtm8O2rFDyMvMIGmBgNVHSMEgZ4wgZuAFCHVUS4NskzciG9viH7BlpY+LJc/oXik
djB0MQswCQYDVQQGEwJBUTEOMAwGA1UECAwFV2hpdGUxETAPBgNVBAcMCEQzY2t0
b3duMRcwFQYDVQQKDA5EM2NrYXNhdXJ1c1JleDEpMCcGA1UEAwwgZDhjMDMyYzkw
ZThiYjM0YjYwMzY1MTRhMTBlMjUzNmSCCQCqULe3/RMdGzATBgNVHSUEDDAKBggr
BgEFBQcDAjALBgNVHQ8EBAMCB4AwDQYJKoZIhvcNAQELBQADgYEATYxuTCKVuZ2j
/LY+lt7LUO0SnEabxTYyK3KRkGUclQFp4Qnw/gvgczu9o0Zv0bbB7F7qmKXRhAPW
rgji29mU/3G3TxcxuJho901e6cd9XJIC4FcaDHcSbr8Auq1U35FQHE4KAVs4x2/N
EBCYQnScE62Pc5i5ryXLkeMCrPz11FM=
-----END CERTIFICATE-----
