Certificate:
    Data:
        Version: 3 (0x2)
        Serial Number:
            35:3d:21:0b:40:55:28:f1:a2:63:18:e7:56:cc:8f:23
    Signature Algorithm: sha256WithRSAEncryption
        Issuer: C=AQ, ST=White, L=D3cktown, O=D3ckasaurusRex, CN=29a1dd303349a28dd11da6126db95b77
        Validity
            Not Before: Aug 26 18:43:42 2014 GMT
            Not After : Aug 26 18:43:42 2015 GMT
        Subject: C=AQ, ST=White, L=D3cktown, O=D3ckasaurusRex, CN=18297db0c75206a59266b44843c604f4
        Subject Public Key Info:
            Public Key Algorithm: rsaEncryption
                Public-Key: (1024 bit)
                Modulus:
                    00:f4:0d:cd:a0:37:d3:3e:0e:b4:3d:70:c6:12:88:
                    af:4e:63:31:c9:33:50:14:be:f5:a3:b6:26:05:2a:
                    16:96:b5:ab:c2:d0:bf:ca:a8:15:d7:57:d1:9c:54:
                    7b:ec:b1:62:bf:7b:c1:de:0b:ed:5f:84:91:dd:93:
                    db:b5:2d:7d:df:08:fd:db:ff:78:c1:12:c6:e4:5b:
                    53:27:f7:c8:de:72:22:ba:be:6d:65:42:c4:4d:57:
                    9a:b2:5c:eb:78:ed:e9:0d:05:6e:ef:24:a2:ef:57:
                    6f:94:12:90:1e:b2:c7:4f:84:19:04:91:f2:8b:73:
                    4a:c0:29:dd:ea:41:36:41:7f
                Exponent: 65537 (0x10001)
        X509v3 extensions:
            X509v3 Basic Constraints: 
                CA:FALSE
            Netscape Cert Type: 
                SSL Client
            Netscape Comment: 
                d3ck Client Certificate
            X509v3 Subject Key Identifier: 
                57:CE:D1:1E:92:86:BB:EA:DE:CC:F4:4F:18:E9:B0:CE:2B:A2:DB:9F
            X509v3 Authority Key Identifier: 
                keyid:2F:0D:90:72:4A:E8:94:B5:F7:51:23:4F:40:F9:CB:F3:DE:93:A3:3F
                DirName:/C=AQ/ST=White/L=D3cktown/O=D3ckasaurusRex/CN=29a1dd303349a28dd11da6126db95b77
                serial:AF:E9:EE:3B:D1:A5:C2:22

            X509v3 Extended Key Usage: 
                TLS Web Client Authentication
            X509v3 Key Usage: 
                Digital Signature
    Signature Algorithm: sha256WithRSAEncryption
         02:28:da:88:e5:88:22:af:23:75:af:e0:d4:1e:d6:d6:29:4c:
         6a:e4:9d:30:92:f1:8b:93:d3:53:2a:29:7a:e0:5e:bc:17:5b:
         10:53:03:c5:4e:f8:3d:a0:42:12:27:a7:c6:5d:78:c1:37:77:
         5d:3b:0d:28:5c:66:9f:6b:8f:7b:14:6d:2d:84:8f:d6:e6:52:
         df:36:9b:f6:2d:81:b4:f1:90:69:61:fe:2e:25:89:4e:9a:27:
         1f:7f:9d:4b:ab:60:32:89:73:9e:0c:88:90:a5:bd:7f:8b:bc:
         15:70:21:17:7c:f6:d2:ee:29:33:61:15:bf:f7:16:df:64:00:
         4d:aa
-----BEGIN CERTIFICATE-----
MIIDozCCAwygAwIBAgIQNT0hC0BVKPGiYxjnVsyPIzANBgkqhkiG9w0BAQsFADB0
MQswCQYDVQQGEwJBUTEOMAwGA1UECAwFV2hpdGUxETAPBgNVBAcMCEQzY2t0b3du
MRcwFQYDVQQKDA5EM2NrYXNhdXJ1c1JleDEpMCcGA1UEAwwgMjlhMWRkMzAzMzQ5
YTI4ZGQxMWRhNjEyNmRiOTViNzcwHhcNMTQwODI2MTg0MzQyWhcNMTUwODI2MTg0
MzQyWjB0MQswCQYDVQQGEwJBUTEOMAwGA1UECAwFV2hpdGUxETAPBgNVBAcMCEQz
Y2t0b3duMRcwFQYDVQQKDA5EM2NrYXNhdXJ1c1JleDEpMCcGA1UEAwwgMTgyOTdk
YjBjNzUyMDZhNTkyNjZiNDQ4NDNjNjA0ZjQwgZ8wDQYJKoZIhvcNAQEBBQADgY0A
MIGJAoGBAPQNzaA30z4OtD1wxhKIr05jMckzUBS+9aO2JgUqFpa1q8LQv8qoFddX
0ZxUe+yxYr97wd4L7V+Ekd2T27Utfd8I/dv/eMESxuRbUyf3yN5yIrq+bWVCxE1X
mrJc63jt6Q0Fbu8kou9Xb5QSkB6yx0+EGQSR8otzSsAp3epBNkF/AgMBAAGjggE0
MIIBMDAJBgNVHRMEAjAAMBEGCWCGSAGG+EIBAQQEAwIHgDAmBglghkgBhvhCAQ0E
GRYXZDNjayBDbGllbnQgQ2VydGlmaWNhdGUwHQYDVR0OBBYEFFfO0R6Shrvq3sz0
TxjpsM4rotufMIGmBgNVHSMEgZ4wgZuAFC8NkHJK6JS191EjT0D5y/Pek6M/oXik
djB0MQswCQYDVQQGEwJBUTEOMAwGA1UECAwFV2hpdGUxETAPBgNVBAcMCEQzY2t0
b3duMRcwFQYDVQQKDA5EM2NrYXNhdXJ1c1JleDEpMCcGA1UEAwwgMjlhMWRkMzAz
MzQ5YTI4ZGQxMWRhNjEyNmRiOTViNzeCCQCv6e470aXCIjATBgNVHSUEDDAKBggr
BgEFBQcDAjALBgNVHQ8EBAMCB4AwDQYJKoZIhvcNAQELBQADgYEAAijaiOWIIq8j
da/g1B7W1ilMauSdMJLxi5PTUyopeuBevBdbEFMDxU74PaBCEienxl14wTd3XTsN
KFxmn2uPexRtLYSP1uZS3zab9i2BtPGQaWH+LiWJTponH3+dS6tgMolzngyIkKW9
f4u8FXAhF3z20u4pM2EVv/cW32QATao=
-----END CERTIFICATE-----
