Certificate:
    Data:
        Version: 3 (0x2)
        Serial Number:
            0e:dd:17:d3:d2:b3:9b:95:30:2c:f6:29:c9:70:25:60
    Signature Algorithm: sha256WithRSAEncryption
        Issuer: C=AQ, ST=White, L=D3cktown, O=D3ckasaurusRex, CN=4105ec74592ecc7afd6336b0dae2f4bf
        Validity
            Not Before: Nov 19 16:53:48 2014 GMT
            Not After : Nov 19 16:53:48 2015 GMT
        Subject: C=AQ, ST=White, L=D3cktown, O=D3ckasaurusRex, CN=6666558105472a6f6ede97ee1aca9013
        Subject Public Key Info:
            Public Key Algorithm: rsaEncryption
                Public-Key: (2048 bit)
                Modulus:
                    00:da:44:6a:3d:d8:3a:ad:e4:da:47:27:d9:93:6e:
                    a4:0a:3d:cc:ba:0a:0e:06:c2:42:c2:f0:39:a3:62:
                    16:f7:5c:1d:27:d6:ae:42:2d:1e:eb:3f:74:57:db:
                    46:15:d5:45:a5:b1:49:52:de:12:2a:90:eb:33:18:
                    51:68:c4:a6:b5:65:dd:df:67:b8:75:04:09:c3:cc:
                    2c:9f:36:99:ce:3d:73:ba:8a:e7:f3:79:cd:4f:f2:
                    6f:95:7b:5e:de:b4:2d:c4:4a:b4:fb:a1:ba:d1:96:
                    32:60:ac:4f:82:19:50:05:c3:04:c2:4e:18:e2:3d:
                    78:72:55:52:50:b5:ab:15:66:3f:cd:71:4b:26:e2:
                    9a:12:21:67:1d:3f:78:14:9d:77:20:3a:37:74:9d:
                    10:cf:b8:64:54:0a:bc:10:91:fa:88:4b:bf:b7:ec:
                    4e:ce:28:7e:e9:07:a2:57:d8:53:b4:af:b4:1a:85:
                    60:83:2d:b0:34:12:6f:79:39:24:5c:00:4e:1f:bb:
                    fe:31:b2:76:c3:31:bf:ba:49:75:35:75:5a:99:0e:
                    8e:48:c4:6e:e1:cc:d4:0d:cd:2f:ed:1a:93:c0:83:
                    bb:23:a0:b2:14:61:03:82:4d:1b:1f:b0:f0:96:85:
                    9b:d8:d1:ea:dc:29:f7:45:94:77:d5:13:3f:e7:77:
                    b0:07
                Exponent: 65537 (0x10001)
        X509v3 extensions:
            X509v3 Basic Constraints: 
                CA:FALSE
            Netscape Cert Type: 
                SSL Client
            Netscape Comment: 
                d3ck Client Certificate
            X509v3 Subject Key Identifier: 
                E3:A9:82:D5:36:C7:A9:07:95:E1:69:69:BE:EF:7D:9E:ED:0C:7A:1C
            X509v3 Authority Key Identifier: 
                keyid:AF:E9:18:85:D7:3C:59:75:43:1E:0D:F7:F3:A4:35:CF:F2:64:EE:86
                DirName:/C=AQ/ST=White/L=D3cktown/O=D3ckasaurusRex/CN=4105ec74592ecc7afd6336b0dae2f4bf
                serial:8C:1E:0D:13:64:72:BF:02

            X509v3 Extended Key Usage: 
                TLS Web Client Authentication
            X509v3 Key Usage: 
                Digital Signature
    Signature Algorithm: sha256WithRSAEncryption
         32:7c:17:7c:e9:6e:a0:6d:e2:02:f2:c7:e7:6e:14:88:85:dc:
         84:4f:c8:11:1f:be:95:24:b1:5f:4c:d8:1d:83:e8:99:6d:4b:
         91:8f:96:8f:96:82:f6:0d:ab:d4:1e:a6:02:f0:a7:f3:59:b0:
         17:d0:66:0e:e9:1b:d6:b1:fb:f3:0d:81:44:a6:f4:32:9f:91:
         ae:ca:b9:d4:35:3a:7e:7a:6a:69:09:8f:81:f4:b6:e1:3a:72:
         2a:87:1b:a9:68:88:0c:c2:a9:0f:6e:dd:b4:eb:b5:75:13:a5:
         41:ac:15:4a:16:53:d8:50:6c:e4:2d:47:c6:e2:a9:d6:5e:8a:
         39:64:ad:a9:f4:dd:73:ca:06:42:57:aa:41:9d:18:09:ec:30:
         80:61:7e:2a:d0:06:3d:a3:c0:dc:94:5b:93:6e:b5:23:be:f5:
         a9:2e:c1:a6:e1:79:75:d5:20:c9:0c:4b:b0:d1:37:fb:00:5a:
         bc:e4:dd:e6:bf:a1:08:24:91:a5:8a:2b:35:c7:f8:2a:52:96:
         b1:c9:6c:66:ac:5d:32:8a:ef:01:31:5a:c6:4c:1a:3f:78:9e:
         15:43:45:ce:e0:72:a3:4d:1c:22:ce:43:26:08:11:07:af:83:
         4a:db:d6:1c:a0:86:bc:bf:ed:45:1d:ec:70:f2:d1:cc:b1:99:
         5a:9d:3d:9e
-----BEGIN CERTIFICATE-----
MIIEqDCCA5CgAwIBAgIQDt0X09Kzm5UwLPYpyXAlYDANBgkqhkiG9w0BAQsFADB0
MQswCQYDVQQGEwJBUTEOMAwGA1UECBMFV2hpdGUxETAPBgNVBAcTCEQzY2t0b3du
MRcwFQYDVQQKEw5EM2NrYXNhdXJ1c1JleDEpMCcGA1UEAxMgNDEwNWVjNzQ1OTJl
Y2M3YWZkNjMzNmIwZGFlMmY0YmYwHhcNMTQxMTE5MTY1MzQ4WhcNMTUxMTE5MTY1
MzQ4WjB0MQswCQYDVQQGEwJBUTEOMAwGA1UECBMFV2hpdGUxETAPBgNVBAcTCEQz
Y2t0b3duMRcwFQYDVQQKEw5EM2NrYXNhdXJ1c1JleDEpMCcGA1UEAxMgNjY2NjU1
ODEwNTQ3MmE2ZjZlZGU5N2VlMWFjYTkwMTMwggEiMA0GCSqGSIb3DQEBAQUAA4IB
DwAwggEKAoIBAQDaRGo92Dqt5NpHJ9mTbqQKPcy6Cg4GwkLC8DmjYhb3XB0n1q5C
LR7rP3RX20YV1UWlsUlS3hIqkOszGFFoxKa1Zd3fZ7h1BAnDzCyfNpnOPXO6iufz
ec1P8m+Ve17etC3ESrT7obrRljJgrE+CGVAFwwTCThjiPXhyVVJQtasVZj/NcUsm
4poSIWcdP3gUnXcgOjd0nRDPuGRUCrwQkfqIS7+37E7OKH7pB6JX2FO0r7QahWCD
LbA0Em95OSRcAE4fu/4xsnbDMb+6SXU1dVqZDo5IxG7hzNQNzS/tGpPAg7sjoLIU
YQOCTRsfsPCWhZvY0ercKfdFlHfVEz/nd7AHAgMBAAGjggE0MIIBMDAJBgNVHRME
AjAAMBEGCWCGSAGG+EIBAQQEAwIHgDAmBglghkgBhvhCAQ0EGRYXZDNjayBDbGll
bnQgQ2VydGlmaWNhdGUwHQYDVR0OBBYEFOOpgtU2x6kHleFpab7vfZ7tDHocMIGm
BgNVHSMEgZ4wgZuAFK/pGIXXPFl1Qx4N9/OkNc/yZO6GoXikdjB0MQswCQYDVQQG
EwJBUTEOMAwGA1UECBMFV2hpdGUxETAPBgNVBAcTCEQzY2t0b3duMRcwFQYDVQQK
Ew5EM2NrYXNhdXJ1c1JleDEpMCcGA1UEAxMgNDEwNWVjNzQ1OTJlY2M3YWZkNjMz
NmIwZGFlMmY0YmaCCQCMHg0TZHK/AjATBgNVHSUEDDAKBggrBgEFBQcDAjALBgNV
HQ8EBAMCB4AwDQYJKoZIhvcNAQELBQADggEBADJ8F3zpbqBt4gLyx+duFIiF3IRP
yBEfvpUksV9M2B2D6JltS5GPlo+WgvYNq9QepgLwp/NZsBfQZg7pG9ax+/MNgUSm
9DKfka7KudQ1On56amkJj4H0tuE6ciqHG6loiAzCqQ9u3bTrtXUTpUGsFUoWU9hQ
bOQtR8biqdZeijlkran03XPKBkJXqkGdGAnsMIBhfirQBj2jwNyUW5NutSO+9aku
wabheXXVIMkMS7DRN/sAWrzk3ea/oQgkkaWKKzXH+CpSlrHJbGasXTKK7wExWsZM
Gj94nhVDRc7gcqNNHCLOQyYIEQevg0rb1hyghry/7UUd7HDy0cyxmVqdPZ4=
-----END CERTIFICATE-----
