Certificate:
    Data:
        Version: 3 (0x2)
        Serial Number:
            2c:d0:5a:07:eb:e0:84:d3:20:a9:40:fc:e9:88:2a:4a
    Signature Algorithm: sha256WithRSAEncryption
        Issuer: C=AQ, ST=White, L=D3cktown, O=D3ckasaurusRex, CN=54998394f20a396c2e4764ffca6fd772
        Validity
            Not Before: Sep 23 15:20:26 2014 GMT
            Not After : Sep 23 15:20:26 2015 GMT
        Subject: C=AQ, ST=White, L=D3cktown, O=D3ckasaurusRex, CN=7b564bee36d696750d58cb5f43df2f7e
        Subject Public Key Info:
            Public Key Algorithm: rsaEncryption
                Public-Key: (1024 bit)
                Modulus:
                    00:c9:bc:80:dc:7d:54:99:90:40:8c:ec:1d:ee:68:
                    21:f8:bb:57:27:23:d0:51:9a:f4:89:cb:03:98:bb:
                    72:23:3e:f1:a2:05:9f:f3:14:8b:79:fe:63:58:29:
                    36:88:53:42:8a:42:16:6f:4c:8d:dc:5d:83:6c:82:
                    5e:8d:e0:a7:1f:a1:34:59:c0:4d:b5:0f:b9:fb:e8:
                    db:b1:ad:57:8d:a0:e4:bd:2c:8f:5a:29:27:75:52:
                    4a:21:39:7d:84:c3:6e:39:58:7e:94:24:f2:20:29:
                    06:b0:c9:b0:00:7c:c7:63:cd:24:39:b4:f1:27:d9:
                    ce:c0:d3:65:6c:c3:90:5e:bd
                Exponent: 65537 (0x10001)
        X509v3 extensions:
            X509v3 Basic Constraints: 
                CA:FALSE
            Netscape Cert Type: 
                SSL Client
            Netscape Comment: 
                d3ck Client Certificate
            X509v3 Subject Key Identifier: 
                23:65:86:43:D2:2D:7A:84:B2:62:39:1A:63:CE:9B:25:E4:31:BB:E5
            X509v3 Authority Key Identifier: 
                keyid:9D:38:60:89:5F:B8:A1:B8:27:DC:28:C3:1F:84:29:70:0D:E6:9C:0F
                DirName:/C=AQ/ST=White/L=D3cktown/O=D3ckasaurusRex/CN=54998394f20a396c2e4764ffca6fd772
                serial:DF:93:4B:C3:42:F6:90:65

            X509v3 Extended Key Usage: 
                TLS Web Client Authentication
            X509v3 Key Usage: 
                Digital Signature
    Signature Algorithm: sha256WithRSAEncryption
         32:f8:4b:6e:59:e4:dd:59:74:bc:02:f4:df:0a:db:28:19:d2:
         5f:28:cb:85:cf:0b:54:45:81:8c:6e:bd:b7:12:80:db:4d:50:
         45:95:12:a4:8a:a8:21:a8:b9:a4:fe:ca:cb:29:6f:40:72:51:
         e7:b4:a4:06:a1:45:e8:86:cb:bd:d4:03:c8:d4:eb:08:bb:11:
         c5:2a:6a:98:25:2c:66:de:f7:c2:ae:7c:88:cd:1d:a9:7a:6b:
         d2:92:e7:d6:cc:0f:d6:50:67:39:0f:ef:9b:69:5b:40:01:eb:
         bd:64:0c:78:ab:9b:67:79:1d:0f:c6:40:7a:d7:05:33:e3:fa:
         97:2e
-----BEGIN CERTIFICATE-----
MIIDozCCAwygAwIBAgIQLNBaB+vghNMgqUD86YgqSjANBgkqhkiG9w0BAQsFADB0
MQswCQYDVQQGEwJBUTEOMAwGA1UECAwFV2hpdGUxETAPBgNVBAcMCEQzY2t0b3du
MRcwFQYDVQQKDA5EM2NrYXNhdXJ1c1JleDEpMCcGA1UEAwwgNTQ5OTgzOTRmMjBh
Mzk2YzJlNDc2NGZmY2E2ZmQ3NzIwHhcNMTQwOTIzMTUyMDI2WhcNMTUwOTIzMTUy
MDI2WjB0MQswCQYDVQQGEwJBUTEOMAwGA1UECAwFV2hpdGUxETAPBgNVBAcMCEQz
Y2t0b3duMRcwFQYDVQQKDA5EM2NrYXNhdXJ1c1JleDEpMCcGA1UEAwwgN2I1NjRi
ZWUzNmQ2OTY3NTBkNThjYjVmNDNkZjJmN2UwgZ8wDQYJKoZIhvcNAQEBBQADgY0A
MIGJAoGBAMm8gNx9VJmQQIzsHe5oIfi7Vycj0FGa9InLA5i7ciM+8aIFn/MUi3n+
Y1gpNohTQopCFm9Mjdxdg2yCXo3gpx+hNFnATbUPufvo27GtV42g5L0sj1opJ3VS
SiE5fYTDbjlYfpQk8iApBrDJsAB8x2PNJDm08SfZzsDTZWzDkF69AgMBAAGjggE0
MIIBMDAJBgNVHRMEAjAAMBEGCWCGSAGG+EIBAQQEAwIHgDAmBglghkgBhvhCAQ0E
GRYXZDNjayBDbGllbnQgQ2VydGlmaWNhdGUwHQYDVR0OBBYEFCNlhkPSLXqEsmI5
GmPOmyXkMbvlMIGmBgNVHSMEgZ4wgZuAFJ04YIlfuKG4J9wowx+EKXAN5pwPoXik
djB0MQswCQYDVQQGEwJBUTEOMAwGA1UECAwFV2hpdGUxETAPBgNVBAcMCEQzY2t0
b3duMRcwFQYDVQQKDA5EM2NrYXNhdXJ1c1JleDEpMCcGA1UEAwwgNTQ5OTgzOTRm
MjBhMzk2YzJlNDc2NGZmY2E2ZmQ3NzKCCQDfk0vDQvaQZTATBgNVHSUEDDAKBggr
BgEFBQcDAjALBgNVHQ8EBAMCB4AwDQYJKoZIhvcNAQELBQADgYEAMvhLblnk3Vl0
vAL03wrbKBnSXyjLhc8LVEWBjG69txKA201QRZUSpIqoIai5pP7KyylvQHJR57Sk
BqFF6IbLvdQDyNTrCLsRxSpqmCUsZt73wq58iM0dqXpr0pLn1swP1lBnOQ/vm2lb
QAHrvWQMeKubZ3kdD8ZAetcFM+P6ly4=
-----END CERTIFICATE-----
