Certificate:
    Data:
        Version: 3 (0x2)
        Serial Number:
            92:55:00:d4:3c:2e:96:10:1c:0d:ab:97:7c:95:b7:49
    Signature Algorithm: sha256WithRSAEncryption
        Issuer: C=AQ, ST=White, L=D3cktown, O=D3ckasaurusRex, CN=3977b0fa1c9c4e4b09c751f4992b9669
        Validity
            Not Before: Nov 11 03:30:06 2014 GMT
            Not After : Nov 11 03:30:06 2015 GMT
        Subject: C=AQ, ST=White, L=D3cktown, O=D3ckasaurusRex, CN=059b100b234d69dc6701205cdfee6b2f
        Subject Public Key Info:
            Public Key Algorithm: rsaEncryption
                Public-Key: (2048 bit)
                Modulus:
                    00:e7:04:a1:e9:d2:e9:a3:73:dc:bb:82:93:68:8d:
                    56:1b:ae:22:19:ac:2a:22:c5:df:94:b5:19:95:2c:
                    c2:a7:94:b4:b4:4c:0f:63:c2:6c:93:6d:5f:28:b4:
                    35:c6:83:85:21:b6:38:c0:2c:b7:05:ff:39:6c:ce:
                    fa:8a:27:c2:1a:b2:ce:ec:e7:87:e1:19:d2:1f:6f:
                    f1:68:31:46:b6:f1:6d:92:d3:e1:1e:a3:fb:7e:8a:
                    08:da:08:3a:f2:30:1c:71:f9:f4:92:b0:cb:a2:f5:
                    75:5d:5b:91:8b:25:5a:1e:d1:8e:0f:82:f3:48:1a:
                    3b:94:42:db:df:c7:64:ca:f5:62:ee:75:3d:72:36:
                    ec:53:24:c5:1d:db:e5:28:f9:cd:48:14:66:7f:8e:
                    44:de:70:dd:42:f3:71:ec:51:8e:e1:73:6c:62:c7:
                    dd:3a:1e:85:a2:92:48:68:2c:58:bb:b2:80:33:ce:
                    30:5b:8c:bd:b4:7f:4b:1b:6e:58:b0:65:8d:92:97:
                    7e:7a:37:a2:91:e0:3c:57:f5:0d:bf:f4:60:a1:09:
                    06:1a:a0:c7:bc:04:b7:72:66:da:f1:7b:3f:01:83:
                    a6:0a:66:2a:8e:da:64:33:90:2a:65:3f:3b:c5:1c:
                    59:4a:b0:35:25:16:05:b5:45:9d:55:0e:86:ac:90:
                    8b:4f
                Exponent: 65537 (0x10001)
        X509v3 extensions:
            X509v3 Basic Constraints: 
                CA:FALSE
            Netscape Cert Type: 
                SSL Client
            Netscape Comment: 
                d3ck Client Certificate
            X509v3 Subject Key Identifier: 
                EF:22:58:79:9B:52:BB:0E:54:23:0A:6E:71:EF:E4:96:17:D6:C8:D3
            X509v3 Authority Key Identifier: 
                keyid:E7:65:06:CA:2F:B5:81:5E:26:A2:2A:19:D6:41:F5:FC:E6:50:5B:C1
                DirName:/C=AQ/ST=White/L=D3cktown/O=D3ckasaurusRex/CN=3977b0fa1c9c4e4b09c751f4992b9669
                serial:B2:B1:96:5D:92:EC:C9:B2

            X509v3 Extended Key Usage: 
                TLS Web Client Authentication
            X509v3 Key Usage: 
                Digital Signature
    Signature Algorithm: sha256WithRSAEncryption
         49:30:6b:1b:d5:bd:6a:66:e8:51:89:2f:e2:80:22:88:73:96:
         1c:32:b8:d7:92:6c:6f:ea:14:33:b3:60:53:c6:3a:41:38:5e:
         15:fa:77:c7:6c:76:e9:ec:2e:19:6d:e4:19:94:cb:b8:a7:44:
         51:73:bc:ad:db:d7:4e:f8:d5:b5:87:e6:76:0f:20:1c:f7:66:
         82:6e:d7:2d:f0:e8:2e:8d:48:ff:02:0a:32:6c:f3:24:12:5f:
         86:77:29:93:c6:95:da:02:e4:46:28:92:89:83:4c:f7:a8:7a:
         fc:c3:4a:e1:7b:a0:2c:39:27:4a:04:6e:c0:f6:9c:6f:ae:7c:
         ec:7f:fd:82:3c:1a:2d:f0:07:bd:f6:91:eb:1f:7c:a6:5e:28:
         23:60:6c:19:c5:b1:1e:d2:d0:46:9d:fc:fa:6b:94:68:4d:23:
         92:31:37:ac:ce:32:67:cd:a3:3f:32:cb:b0:96:c4:fa:12:1e:
         01:0d:4a:58:15:7d:d0:33:36:77:e7:70:24:1e:50:c8:ca:26:
         26:69:13:26:9e:02:2a:ad:87:30:ef:70:fa:4f:ab:73:ee:34:
         9a:6c:2e:51:c4:43:e2:f2:8c:d1:70:73:ab:36:0a:9d:1c:6f:
         06:7e:5e:fc:61:05:57:f8:64:9b:21:e8:d4:cb:fe:e0:47:4c:
         9e:69:ec:00
-----BEGIN CERTIFICATE-----
MIIEqTCCA5GgAwIBAgIRAJJVANQ8LpYQHA2rl3yVt0kwDQYJKoZIhvcNAQELBQAw
dDELMAkGA1UEBhMCQVExDjAMBgNVBAgMBVdoaXRlMREwDwYDVQQHDAhEM2NrdG93
bjEXMBUGA1UECgwORDNja2FzYXVydXNSZXgxKTAnBgNVBAMMIDM5NzdiMGZhMWM5
YzRlNGIwOWM3NTFmNDk5MmI5NjY5MB4XDTE0MTExMTAzMzAwNloXDTE1MTExMTAz
MzAwNlowdDELMAkGA1UEBhMCQVExDjAMBgNVBAgTBVdoaXRlMREwDwYDVQQHEwhE
M2NrdG93bjEXMBUGA1UEChMORDNja2FzYXVydXNSZXgxKTAnBgNVBAMTIDA1OWIx
MDBiMjM0ZDY5ZGM2NzAxMjA1Y2RmZWU2YjJmMIIBIjANBgkqhkiG9w0BAQEFAAOC
AQ8AMIIBCgKCAQEA5wSh6dLpo3Pcu4KTaI1WG64iGawqIsXflLUZlSzCp5S0tEwP
Y8Jsk21fKLQ1xoOFIbY4wCy3Bf85bM76iifCGrLO7OeH4RnSH2/xaDFGtvFtktPh
HqP7fooI2gg68jAccfn0krDLovV1XVuRiyVaHtGOD4LzSBo7lELb38dkyvVi7nU9
cjbsUyTFHdvlKPnNSBRmf45E3nDdQvNx7FGO4XNsYsfdOh6FopJIaCxYu7KAM84w
W4y9tH9LG25YsGWNkpd+ejeikeA8V/UNv/RgoQkGGqDHvAS3cmba8Xs/AYOmCmYq
jtpkM5AqZT87xRxZSrA1JRYFtUWdVQ6GrJCLTwIDAQABo4IBNDCCATAwCQYDVR0T
BAIwADARBglghkgBhvhCAQEEBAMCB4AwJgYJYIZIAYb4QgENBBkWF2QzY2sgQ2xp
ZW50IENlcnRpZmljYXRlMB0GA1UdDgQWBBTvIlh5m1K7DlQjCm5x7+SWF9bI0zCB
pgYDVR0jBIGeMIGbgBTnZQbKL7WBXiaiKhnWQfX85lBbwaF4pHYwdDELMAkGA1UE
BhMCQVExDjAMBgNVBAgMBVdoaXRlMREwDwYDVQQHDAhEM2NrdG93bjEXMBUGA1UE
CgwORDNja2FzYXVydXNSZXgxKTAnBgNVBAMMIDM5NzdiMGZhMWM5YzRlNGIwOWM3
NTFmNDk5MmI5NjY5ggkAsrGWXZLsybIwEwYDVR0lBAwwCgYIKwYBBQUHAwIwCwYD
VR0PBAQDAgeAMA0GCSqGSIb3DQEBCwUAA4IBAQBJMGsb1b1qZuhRiS/igCKIc5Yc
MrjXkmxv6hQzs2BTxjpBOF4V+nfHbHbp7C4ZbeQZlMu4p0RRc7yt29dO+NW1h+Z2
DyAc92aCbtct8OgujUj/AgoybPMkEl+GdymTxpXaAuRGKJKJg0z3qHr8w0rhe6As
OSdKBG7A9pxvrnzsf/2CPBot8Ae99pHrH3ymXigjYGwZxbEe0tBGnfz6a5RoTSOS
MTeszjJnzaM/MsuwlsT6Eh4BDUpYFX3QMzZ353AkHlDIyiYmaRMmngIqrYcw73D6
T6tz7jSabC5RxEPi8ozRcHOrNgqdHG8Gfl78YQVX+GSbIejUy/7gR0yeaewA
-----END CERTIFICATE-----
