Certificate:
    Data:
        Version: 3 (0x2)
        Serial Number:
            0f:30:99:a2:98:f1:96:01:4e:44:64:2e:6d:f3:82:ec
    Signature Algorithm: sha256WithRSAEncryption
        Issuer: C=AQ, ST=White, L=D3cktown, O=D3ckasaurusRex, CN=d9b4486d64ab7381ad6449c8e4de3782
        Validity
            Not Before: Sep  7 22:29:03 2014 GMT
            Not After : Sep  7 22:29:03 2015 GMT
        Subject: C=AQ, ST=White, L=D3cktown, O=D3ckasaurusRex, CN=f3d8cbdc73a847fc731312ad0b77917f
        Subject Public Key Info:
            Public Key Algorithm: rsaEncryption
                Public-Key: (1024 bit)
                Modulus:
                    00:c5:2d:41:4b:a8:02:ae:a1:6a:7a:0a:10:e9:06:
                    be:b4:16:1b:be:ae:b4:9e:6f:e8:ec:9c:fd:6a:93:
                    eb:5a:ba:54:2d:f9:d0:21:93:62:c2:1f:f5:9d:1f:
                    7b:42:15:3e:45:5c:07:a4:fd:4b:60:28:1d:1c:4a:
                    27:a5:69:1d:cb:eb:f1:cd:13:06:f9:5d:fb:af:df:
                    b5:de:2d:83:40:3f:06:62:2e:67:f1:5b:a3:4c:a8:
                    5b:d6:61:41:86:66:0f:04:72:cb:3e:e7:95:cd:ed:
                    52:44:73:7b:ee:9f:c5:6d:22:29:29:1c:f7:e0:c8:
                    88:44:3c:d9:87:19:71:bb:2f
                Exponent: 65537 (0x10001)
        X509v3 extensions:
            X509v3 Basic Constraints: 
                CA:FALSE
            Netscape Cert Type: 
                SSL Client
            Netscape Comment: 
                d3ck Client Certificate
            X509v3 Subject Key Identifier: 
                20:11:B4:41:0C:FD:64:32:4F:B9:7F:EF:CB:5D:6F:55:5F:85:B0:77
            X509v3 Authority Key Identifier: 
                keyid:27:1C:CC:6D:2D:6E:9B:22:DA:DE:66:CF:9A:97:2E:6A:60:E2:6E:D1
                DirName:/C=AQ/ST=White/L=D3cktown/O=D3ckasaurusRex/CN=d9b4486d64ab7381ad6449c8e4de3782
                serial:DE:23:44:65:96:51:EA:FF

            X509v3 Extended Key Usage: 
                TLS Web Client Authentication
            X509v3 Key Usage: 
                Digital Signature
    Signature Algorithm: sha256WithRSAEncryption
         a4:18:f6:4d:3b:e3:61:dd:57:06:8f:19:62:30:8f:b4:8f:f0:
         8f:60:d4:63:3f:86:39:ee:10:e5:a3:53:a2:32:95:60:ae:6d:
         52:da:16:c1:e3:09:b3:2e:7a:18:0f:3f:41:4f:41:2e:e1:f6:
         ce:e3:98:ee:5a:a4:93:b4:e1:24:75:29:4c:fd:6c:23:5d:b0:
         4d:db:5f:2b:ff:71:89:0d:6d:fc:3e:96:02:c8:91:88:f7:c8:
         42:a7:04:b8:3e:bb:66:92:d3:39:d8:e2:48:00:55:14:de:74:
         0d:a0:17:1d:c9:9e:be:0e:c7:5a:96:79:f5:57:64:b7:1a:e8:
         f6:2b
-----BEGIN CERTIFICATE-----
MIIDozCCAwygAwIBAgIQDzCZopjxlgFORGQubfOC7DANBgkqhkiG9w0BAQsFADB0
MQswCQYDVQQGEwJBUTEOMAwGA1UECAwFV2hpdGUxETAPBgNVBAcMCEQzY2t0b3du
MRcwFQYDVQQKDA5EM2NrYXNhdXJ1c1JleDEpMCcGA1UEAwwgZDliNDQ4NmQ2NGFi
NzM4MWFkNjQ0OWM4ZTRkZTM3ODIwHhcNMTQwOTA3MjIyOTAzWhcNMTUwOTA3MjIy
OTAzWjB0MQswCQYDVQQGEwJBUTEOMAwGA1UECAwFV2hpdGUxETAPBgNVBAcMCEQz
Y2t0b3duMRcwFQYDVQQKDA5EM2NrYXNhdXJ1c1JleDEpMCcGA1UEAwwgZjNkOGNi
ZGM3M2E4NDdmYzczMTMxMmFkMGI3NzkxN2YwgZ8wDQYJKoZIhvcNAQEBBQADgY0A
MIGJAoGBAMUtQUuoAq6hanoKEOkGvrQWG76utJ5v6Oyc/WqT61q6VC350CGTYsIf
9Z0fe0IVPkVcB6T9S2AoHRxKJ6VpHcvr8c0TBvld+6/ftd4tg0A/BmIuZ/Fbo0yo
W9ZhQYZmDwRyyz7nlc3tUkRze+6fxW0iKSkc9+DIiEQ82YcZcbsvAgMBAAGjggE0
MIIBMDAJBgNVHRMEAjAAMBEGCWCGSAGG+EIBAQQEAwIHgDAmBglghkgBhvhCAQ0E
GRYXZDNjayBDbGllbnQgQ2VydGlmaWNhdGUwHQYDVR0OBBYEFCARtEEM/WQyT7l/
78tdb1VfhbB3MIGmBgNVHSMEgZ4wgZuAFCcczG0tbpsi2t5mz5qXLmpg4m7RoXik
djB0MQswCQYDVQQGEwJBUTEOMAwGA1UECAwFV2hpdGUxETAPBgNVBAcMCEQzY2t0
b3duMRcwFQYDVQQKDA5EM2NrYXNhdXJ1c1JleDEpMCcGA1UEAwwgZDliNDQ4NmQ2
NGFiNzM4MWFkNjQ0OWM4ZTRkZTM3ODKCCQDeI0RlllHq/zATBgNVHSUEDDAKBggr
BgEFBQcDAjALBgNVHQ8EBAMCB4AwDQYJKoZIhvcNAQELBQADgYEApBj2TTvjYd1X
Bo8ZYjCPtI/wj2DUYz+GOe4Q5aNTojKVYK5tUtoWweMJsy56GA8/QU9BLuH2zuOY
7lqkk7ThJHUpTP1sI12wTdtfK/9xiQ1t/D6WAsiRiPfIQqcEuD67ZpLTOdjiSABV
FN50DaAXHcmevg7HWpZ59Vdktxro9is=
-----END CERTIFICATE-----
