Certificate:
    Data:
        Version: 3 (0x2)
        Serial Number:
            37:fa:a0:9f:95:18:89:a5:12:54:7d:73:ce:5a:cd:9a
    Signature Algorithm: sha256WithRSAEncryption
        Issuer: C=AQ, ST=White, L=D3cktown, O=D3ckasaurusRex, CN=d8c032c90e8bb34b6036514a10e2536d
        Validity
            Not Before: Sep  8 18:00:01 2014 GMT
            Not After : Sep  8 18:00:01 2015 GMT
        Subject: C=AQ, ST=White, L=D3cktown, O=D3ckasaurusRex, CN=7a2fd4eca574ff6b10382dcbd19c9eba
        Subject Public Key Info:
            Public Key Algorithm: rsaEncryption
                Public-Key: (1024 bit)
                Modulus:
                    00:b0:7d:0c:eb:08:d0:39:aa:c0:b8:29:cd:ea:dd:
                    46:04:0e:04:93:b0:1d:78:cb:6a:ee:59:3c:40:a9:
                    fb:d9:a3:6e:41:95:8a:12:8f:79:dc:06:20:0d:69:
                    4f:cc:68:8d:7a:f2:a8:a5:65:c0:4e:9a:ef:15:8f:
                    f5:8f:d4:c9:76:04:55:34:1a:84:f7:7a:1c:4c:68:
                    9f:1e:5b:9d:4c:82:fe:a3:7d:28:69:c2:3d:40:96:
                    2b:18:8e:85:4e:96:c4:0d:41:f4:0c:26:2e:a0:8b:
                    3f:49:41:fd:6e:50:97:62:16:66:18:a0:31:7a:e9:
                    c9:97:76:e4:c8:39:1a:fb:63
                Exponent: 65537 (0x10001)
        X509v3 extensions:
            X509v3 Basic Constraints: 
                CA:FALSE
            Netscape Cert Type: 
                SSL Client
            Netscape Comment: 
                d3ck Client Certificate
            X509v3 Subject Key Identifier: 
                44:A9:A9:8F:7C:E9:BD:F0:D8:4D:EB:35:86:87:A1:88:11:DF:0D:09
            X509v3 Authority Key Identifier: 
                keyid:21:D5:51:2E:0D:B2:4C:DC:88:6F:6F:88:7E:C1:96:96:3E:2C:97:3F
                DirName:/C=AQ/ST=White/L=D3cktown/O=D3ckasaurusRex/CN=d8c032c90e8bb34b6036514a10e2536d
                serial:AA:50:B7:B7:FD:13:1D:1B

            X509v3 Extended Key Usage: 
                TLS Web Client Authentication
            X509v3 Key Usage: 
                Digital Signature
    Signature Algorithm: sha256WithRSAEncryption
         b7:e3:0a:7c:d8:78:2f:86:fa:76:28:a6:e5:06:35:61:d9:dc:
         81:b1:fb:b7:27:b0:aa:d5:48:a1:35:0e:1c:b9:ec:9d:4d:78:
         52:0a:b1:e2:3e:75:e3:6c:ba:39:42:9e:54:96:61:d5:77:80:
         69:35:79:66:88:37:b6:12:da:dd:b2:4a:0a:f5:2f:76:bf:29:
         4c:82:97:ef:0c:2a:c9:bf:e7:84:63:a5:64:75:db:f0:1e:62:
         55:c5:b8:99:0d:7c:dc:00:39:25:23:40:9b:4b:5b:10:f3:2e:
         86:27:c0:bd:67:e4:6f:0b:d2:5d:9a:f5:e4:77:06:66:e7:a6:
         08:5e
-----BEGIN CERTIFICATE-----
MIIDozCCAwygAwIBAgIQN/qgn5UYiaUSVH1zzlrNmjANBgkqhkiG9w0BAQsFADB0
MQswCQYDVQQGEwJBUTEOMAwGA1UECAwFV2hpdGUxETAPBgNVBAcMCEQzY2t0b3du
MRcwFQYDVQQKDA5EM2NrYXNhdXJ1c1JleDEpMCcGA1UEAwwgZDhjMDMyYzkwZThi
YjM0YjYwMzY1MTRhMTBlMjUzNmQwHhcNMTQwOTA4MTgwMDAxWhcNMTUwOTA4MTgw
MDAxWjB0MQswCQYDVQQGEwJBUTEOMAwGA1UECAwFV2hpdGUxETAPBgNVBAcMCEQz
Y2t0b3duMRcwFQYDVQQKDA5EM2NrYXNhdXJ1c1JleDEpMCcGA1UEAwwgN2EyZmQ0
ZWNhNTc0ZmY2YjEwMzgyZGNiZDE5YzllYmEwgZ8wDQYJKoZIhvcNAQEBBQADgY0A
MIGJAoGBALB9DOsI0DmqwLgpzerdRgQOBJOwHXjLau5ZPECp+9mjbkGVihKPedwG
IA1pT8xojXryqKVlwE6a7xWP9Y/UyXYEVTQahPd6HExonx5bnUyC/qN9KGnCPUCW
KxiOhU6WxA1B9AwmLqCLP0lB/W5Ql2IWZhigMXrpyZd25Mg5GvtjAgMBAAGjggE0
MIIBMDAJBgNVHRMEAjAAMBEGCWCGSAGG+EIBAQQEAwIHgDAmBglghkgBhvhCAQ0E
GRYXZDNjayBDbGllbnQgQ2VydGlmaWNhdGUwHQYDVR0OBBYEFESpqY986b3w2E3r
NYaHoYgR3w0JMIGmBgNVHSMEgZ4wgZuAFCHVUS4NskzciG9viH7BlpY+LJc/oXik
djB0MQswCQYDVQQGEwJBUTEOMAwGA1UECAwFV2hpdGUxETAPBgNVBAcMCEQzY2t0
b3duMRcwFQYDVQQKDA5EM2NrYXNhdXJ1c1JleDEpMCcGA1UEAwwgZDhjMDMyYzkw
ZThiYjM0YjYwMzY1MTRhMTBlMjUzNmSCCQCqULe3/RMdGzATBgNVHSUEDDAKBggr
BgEFBQcDAjALBgNVHQ8EBAMCB4AwDQYJKoZIhvcNAQELBQADgYEAt+MKfNh4L4b6
diim5QY1YdncgbH7tyewqtVIoTUOHLnsnU14Ugqx4j5142y6OUKeVJZh1XeAaTV5
Zog3thLa3bJKCvUvdr8pTIKX7wwqyb/nhGOlZHXb8B5iVcW4mQ183AA5JSNAm0tb
EPMuhifAvWfkbwvSXZr15HcGZuemCF4=
-----END CERTIFICATE-----
