Certificate:
    Data:
        Version: 3 (0x2)
        Serial Number:
            ff:15:95:9a:f7:f6:78:88:4c:43:87:34:88:f8:34:2d
    Signature Algorithm: sha256WithRSAEncryption
        Issuer: C=AQ, ST=White, L=D3cktown, O=D3ckasaurusRex, CN=19228ffa70eb7ff4498a00ed4ca5c107
        Validity
            Not Before: Sep 27 02:34:10 2014 GMT
            Not After : Sep 27 02:34:10 2015 GMT
        Subject: C=AQ, ST=White, L=D3cktown, O=D3ckasaurusRex, CN=cf51c531792c434ce334a58d01a297cc
        Subject Public Key Info:
            Public Key Algorithm: rsaEncryption
                Public-Key: (2048 bit)
                Modulus:
                    00:b7:4c:e8:cc:f9:e3:ff:83:5b:14:db:9d:b5:37:
                    79:98:a5:27:3e:5b:28:72:a0:f7:32:0c:0a:cb:1e:
                    22:79:4d:13:b1:0b:62:f0:80:5c:c2:b6:71:f3:cd:
                    4a:f4:46:42:41:ad:89:65:21:ef:46:17:8f:0c:a3:
                    af:a9:67:4c:0b:44:5e:d6:7a:47:53:58:b3:04:d3:
                    47:6b:30:3f:c9:08:f1:17:44:46:25:d3:0a:9d:a9:
                    ef:a2:90:03:fd:71:14:cc:be:f5:59:b3:29:b9:45:
                    53:7a:3e:8b:a8:b4:97:b3:18:4d:a8:bd:51:95:e3:
                    ed:41:83:7e:7b:c7:11:fe:f1:43:1c:28:7b:50:01:
                    85:fe:7e:e7:6f:a2:da:95:bf:31:5f:9a:84:28:b2:
                    c0:a5:d4:6b:d6:50:64:6d:23:46:73:a1:06:f5:bf:
                    f8:20:98:bf:7a:32:64:71:89:57:85:86:75:25:08:
                    84:61:13:97:1f:16:2a:8f:79:3c:12:d4:2d:5e:5c:
                    11:4c:15:12:14:8f:2c:a8:8d:01:e2:ed:59:6f:85:
                    0a:12:14:1f:d1:cf:08:d2:50:0a:61:8f:b5:d2:40:
                    4a:03:3d:88:96:b0:5b:a4:22:57:cb:be:83:b6:8c:
                    72:59:ea:55:00:cc:d0:ca:87:cf:eb:3c:37:84:54:
                    26:af
                Exponent: 65537 (0x10001)
        X509v3 extensions:
            X509v3 Basic Constraints: 
                CA:FALSE
            Netscape Cert Type: 
                SSL Client
            Netscape Comment: 
                d3ck Client Certificate
            X509v3 Subject Key Identifier: 
                54:0D:C1:2E:93:C5:8F:A6:34:9A:D7:6A:EC:45:37:E6:F9:7A:03:70
            X509v3 Authority Key Identifier: 
                keyid:9D:C8:B0:C2:E9:76:78:D5:2F:AE:9B:77:6C:56:F1:E9:16:CB:2F:E6
                DirName:/C=AQ/ST=White/L=D3cktown/O=D3ckasaurusRex/CN=19228ffa70eb7ff4498a00ed4ca5c107
                serial:C2:5E:63:71:1C:F5:63:D4

            X509v3 Extended Key Usage: 
                TLS Web Client Authentication
            X509v3 Key Usage: 
                Digital Signature
    Signature Algorithm: sha256WithRSAEncryption
         77:b0:15:ff:0a:51:72:52:59:72:e6:85:1d:2b:a0:1b:65:25:
         5a:51:c7:fa:08:d7:89:14:ed:6e:d6:aa:ad:69:ba:fb:59:b9:
         38:07:a4:6a:d1:da:6c:e9:0e:6c:60:aa:28:58:cd:f7:44:fb:
         6d:50:84:bc:79:13:86:35:fd:f1:2d:d1:91:61:02:e9:cd:f7:
         cc:45:25:0a:88:70:a3:28:aa:c2:69:2d:74:e7:a3:4a:a2:d8:
         d6:9b:3c:9a:c8:d1:ba:35:22:6e:88:29:42:8f:ee:2a:5c:e3:
         5e:ae:09:62:2f:6e:2e:11:6f:a6:ff:76:e0:db:e7:12:17:7d:
         8e:2a:7d:25:0f:53:20:d7:f3:a8:da:3b:fb:94:72:31:8b:ee:
         e4:4b:d8:30:0d:d7:f0:3a:7f:8f:9e:54:d9:5e:d5:70:11:fe:
         c9:74:13:8b:19:70:d7:ad:c5:fb:b5:32:6a:81:dd:55:20:58:
         8b:34:af:7d:c5:e4:fe:05:48:ca:69:1c:32:c0:8d:40:a5:66:
         84:c3:7e:bf:4b:c8:07:a5:b1:86:be:a9:40:5b:d0:d0:33:ab:
         93:de:98:80:e0:0b:a5:4b:6d:58:3d:24:46:df:cb:e8:24:f7:
         58:21:4b:e2:49:3d:ba:25:40:fe:9c:c0:04:ac:e9:1b:86:e9:
         ca:22:a8:40
-----BEGIN CERTIFICATE-----
MIIEqTCCA5GgAwIBAgIRAP8VlZr39niITEOHNIj4NC0wDQYJKoZIhvcNAQELBQAw
dDELMAkGA1UEBhMCQVExDjAMBgNVBAgMBVdoaXRlMREwDwYDVQQHDAhEM2NrdG93
bjEXMBUGA1UECgwORDNja2FzYXVydXNSZXgxKTAnBgNVBAMMIDE5MjI4ZmZhNzBl
YjdmZjQ0OThhMDBlZDRjYTVjMTA3MB4XDTE0MDkyNzAyMzQxMFoXDTE1MDkyNzAy
MzQxMFowdDELMAkGA1UEBhMCQVExDjAMBgNVBAgMBVdoaXRlMREwDwYDVQQHDAhE
M2NrdG93bjEXMBUGA1UECgwORDNja2FzYXVydXNSZXgxKTAnBgNVBAMMIGNmNTFj
NTMxNzkyYzQzNGNlMzM0YTU4ZDAxYTI5N2NjMIIBIjANBgkqhkiG9w0BAQEFAAOC
AQ8AMIIBCgKCAQEAt0zozPnj/4NbFNudtTd5mKUnPlsocqD3MgwKyx4ieU0TsQti
8IBcwrZx881K9EZCQa2JZSHvRhePDKOvqWdMC0Re1npHU1izBNNHazA/yQjxF0RG
JdMKnanvopAD/XEUzL71WbMpuUVTej6LqLSXsxhNqL1RlePtQYN+e8cR/vFDHCh7
UAGF/n7nb6Lalb8xX5qEKLLApdRr1lBkbSNGc6EG9b/4IJi/ejJkcYlXhYZ1JQiE
YROXHxYqj3k8EtQtXlwRTBUSFI8sqI0B4u1Zb4UKEhQf0c8I0lAKYY+10kBKAz2I
lrBbpCJXy76DtoxyWepVAMzQyofP6zw3hFQmrwIDAQABo4IBNDCCATAwCQYDVR0T
BAIwADARBglghkgBhvhCAQEEBAMCB4AwJgYJYIZIAYb4QgENBBkWF2QzY2sgQ2xp
ZW50IENlcnRpZmljYXRlMB0GA1UdDgQWBBRUDcEuk8WPpjSa12rsRTfm+XoDcDCB
pgYDVR0jBIGeMIGbgBSdyLDC6XZ41S+um3dsVvHpFssv5qF4pHYwdDELMAkGA1UE
BhMCQVExDjAMBgNVBAgMBVdoaXRlMREwDwYDVQQHDAhEM2NrdG93bjEXMBUGA1UE
CgwORDNja2FzYXVydXNSZXgxKTAnBgNVBAMMIDE5MjI4ZmZhNzBlYjdmZjQ0OThh
MDBlZDRjYTVjMTA3ggkAwl5jcRz1Y9QwEwYDVR0lBAwwCgYIKwYBBQUHAwIwCwYD
VR0PBAQDAgeAMA0GCSqGSIb3DQEBCwUAA4IBAQB3sBX/ClFyUlly5oUdK6AbZSVa
Ucf6CNeJFO1u1qqtabr7Wbk4B6Rq0dps6Q5sYKooWM33RPttUIS8eROGNf3xLdGR
YQLpzffMRSUKiHCjKKrCaS1056NKotjWmzyayNG6NSJuiClCj+4qXONergliL24u
EW+m/3bg2+cSF32OKn0lD1Mg1/Oo2jv7lHIxi+7kS9gwDdfwOn+PnlTZXtVwEf7J
dBOLGXDXrcX7tTJqgd1VIFiLNK99xeT+BUjKaRwywI1ApWaEw36/S8gHpbGGvqlA
W9DQM6uT3piA4AulS21YPSRG38voJPdYIUviST26JUD+nMAErOkbhunKIqhA
-----END CERTIFICATE-----
