Certificate:
    Data:
        Version: 3 (0x2)
        Serial Number:
            82:ef:d6:88:f5:e3:08:82:0f:4a:1f:9b:32:45:17:50
    Signature Algorithm: sha256WithRSAEncryption
        Issuer: C=AQ, ST=White, L=D3cktown, O=D3ckasaurusRex, CN=edadb587a616b2396b8d1551916e147b
        Validity
            Not Before: Sep  8 20:34:05 2014 GMT
            Not After : Sep  8 20:34:05 2015 GMT
        Subject: C=AQ, ST=White, L=D3cktown, O=D3ckasaurusRex, CN=7048ae974b11fb778a815251d95ca51d
        Subject Public Key Info:
            Public Key Algorithm: rsaEncryption
                Public-Key: (1024 bit)
                Modulus:
                    00:bf:df:1d:c7:ce:cd:1d:2f:9b:6d:be:51:8f:d2:
                    5c:5f:69:29:2f:a4:46:7a:e9:de:ac:63:52:4b:2d:
                    57:f7:c3:b7:eb:fe:2c:24:15:51:ea:68:75:6a:43:
                    df:49:58:1b:b9:3a:7d:ac:d0:7e:9d:73:1a:e1:5c:
                    27:57:e5:55:05:87:a4:9d:8e:6f:a6:8c:ef:0d:ea:
                    6c:1e:4c:4c:33:2f:53:97:56:fb:62:14:8a:d0:d0:
                    1e:2b:35:78:c0:68:e6:81:24:c4:55:2c:b3:54:a5:
                    3c:11:4b:87:6f:6a:0e:a6:fa:ca:53:e9:d2:33:85:
                    37:f5:3d:7a:6a:bd:bf:6f:bf
                Exponent: 65537 (0x10001)
        X509v3 extensions:
            X509v3 Basic Constraints: 
                CA:FALSE
            Netscape Cert Type: 
                SSL Client
            Netscape Comment: 
                d3ck Client Certificate
            X509v3 Subject Key Identifier: 
                13:7C:DB:96:43:16:1B:61:54:E9:1D:1D:85:E2:88:09:70:4D:AE:5D
            X509v3 Authority Key Identifier: 
                keyid:D5:58:B5:9B:99:D5:E4:3D:21:56:09:CA:3D:40:98:A8:B6:A8:73:B6
                DirName:/C=AQ/ST=White/L=D3cktown/O=D3ckasaurusRex/CN=edadb587a616b2396b8d1551916e147b
                serial:C1:1D:8C:20:CF:34:BE:27

            X509v3 Extended Key Usage: 
                TLS Web Client Authentication
            X509v3 Key Usage: 
                Digital Signature
    Signature Algorithm: sha256WithRSAEncryption
         0e:43:30:32:3a:c2:2f:1a:39:5c:dd:63:fc:a4:18:95:7f:18:
         d6:5a:16:18:7a:3c:52:35:87:28:0c:2a:56:a6:ba:ae:5b:ed:
         3c:36:f3:64:98:a5:4f:37:91:7c:70:95:af:3b:77:26:9b:55:
         ea:93:52:0c:68:ed:d6:88:a0:03:2a:d4:f8:7a:e6:9e:50:31:
         57:53:21:9f:a9:09:4c:03:16:0c:1b:ff:00:1c:e4:31:f3:a3:
         04:40:82:89:5b:12:03:f3:f7:9a:31:3c:e7:bc:d7:2b:7c:8f:
         94:44:18:ec:a0:74:ec:63:42:2e:12:61:9e:ba:6d:39:a5:36:
         3d:d8
-----BEGIN CERTIFICATE-----
MIIDpDCCAw2gAwIBAgIRAILv1oj14wiCD0ofmzJFF1AwDQYJKoZIhvcNAQELBQAw
dDELMAkGA1UEBhMCQVExDjAMBgNVBAgMBVdoaXRlMREwDwYDVQQHDAhEM2NrdG93
bjEXMBUGA1UECgwORDNja2FzYXVydXNSZXgxKTAnBgNVBAMMIGVkYWRiNTg3YTYx
NmIyMzk2YjhkMTU1MTkxNmUxNDdiMB4XDTE0MDkwODIwMzQwNVoXDTE1MDkwODIw
MzQwNVowdDELMAkGA1UEBhMCQVExDjAMBgNVBAgMBVdoaXRlMREwDwYDVQQHDAhE
M2NrdG93bjEXMBUGA1UECgwORDNja2FzYXVydXNSZXgxKTAnBgNVBAMMIDcwNDhh
ZTk3NGIxMWZiNzc4YTgxNTI1MWQ5NWNhNTFkMIGfMA0GCSqGSIb3DQEBAQUAA4GN
ADCBiQKBgQC/3x3Hzs0dL5ttvlGP0lxfaSkvpEZ66d6sY1JLLVf3w7fr/iwkFVHq
aHVqQ99JWBu5On2s0H6dcxrhXCdX5VUFh6Sdjm+mjO8N6mweTEwzL1OXVvtiFIrQ
0B4rNXjAaOaBJMRVLLNUpTwRS4dvag6m+spT6dIzhTf1PXpqvb9vvwIDAQABo4IB
NDCCATAwCQYDVR0TBAIwADARBglghkgBhvhCAQEEBAMCB4AwJgYJYIZIAYb4QgEN
BBkWF2QzY2sgQ2xpZW50IENlcnRpZmljYXRlMB0GA1UdDgQWBBQTfNuWQxYbYVTp
HR2F4ogJcE2uXTCBpgYDVR0jBIGeMIGbgBTVWLWbmdXkPSFWCco9QJiotqhztqF4
pHYwdDELMAkGA1UEBhMCQVExDjAMBgNVBAgMBVdoaXRlMREwDwYDVQQHDAhEM2Nr
dG93bjEXMBUGA1UECgwORDNja2FzYXVydXNSZXgxKTAnBgNVBAMMIGVkYWRiNTg3
YTYxNmIyMzk2YjhkMTU1MTkxNmUxNDdiggkAwR2MIM80vicwEwYDVR0lBAwwCgYI
KwYBBQUHAwIwCwYDVR0PBAQDAgeAMA0GCSqGSIb3DQEBCwUAA4GBAA5DMDI6wi8a
OVzdY/ykGJV/GNZaFhh6PFI1hygMKlamuq5b7Tw282SYpU83kXxwla87dyabVeqT
Ugxo7daIoAMq1Ph65p5QMVdTIZ+pCUwDFgwb/wAc5DHzowRAgolbEgPz95oxPOe8
1yt8j5REGOygdOxjQi4SYZ66bTmlNj3Y
-----END CERTIFICATE-----
