Certificate:
    Data:
        Version: 3 (0x2)
        Serial Number:
            2f:22:60:1d:4c:c9:67:85:b0:80:d7:6f:f7:46:8c:49
    Signature Algorithm: sha256WithRSAEncryption
        Issuer: C=AQ, ST=White, L=D3cktown, O=D3ckasaurusRex, CN=cd0b84f710d6fc2316e6c4755804fcc8
        Validity
            Not Before: Sep 17 04:50:18 2014 GMT
            Not After : Sep 17 04:50:18 2015 GMT
        Subject: C=AQ, ST=White, L=D3cktown, O=D3ckasaurusRex, CN=297578c6b9406970acd97ac71b00a792
        Subject Public Key Info:
            Public Key Algorithm: rsaEncryption
                Public-Key: (1024 bit)
                Modulus:
                    00:e4:d6:2a:fc:0b:30:83:b0:16:bd:5a:be:03:88:
                    b9:82:79:6b:13:6b:13:75:e0:3b:46:ea:f7:81:11:
                    e6:48:c8:7f:2f:4e:53:d6:3e:f8:32:5a:b5:62:da:
                    e0:29:1d:6f:e4:f4:e9:6e:28:c2:ca:71:cb:56:a0:
                    e6:26:cd:aa:d0:39:7f:5b:49:36:2a:eb:c5:12:65:
                    8f:bc:c5:2d:c5:bf:e1:6e:f2:77:77:2f:10:a9:a8:
                    77:a8:b0:3a:a0:90:d1:80:c2:ae:24:e8:e7:63:18:
                    cf:03:10:28:87:f1:2c:71:ee:2e:ae:de:bc:22:f6:
                    7d:20:1e:87:81:f0:69:8a:fd
                Exponent: 65537 (0x10001)
        X509v3 extensions:
            X509v3 Basic Constraints: 
                CA:FALSE
            Netscape Cert Type: 
                SSL Client
            Netscape Comment: 
                d3ck Client Certificate
            X509v3 Subject Key Identifier: 
                98:6A:A8:60:FC:17:31:19:74:4F:F3:03:EC:3C:62:10:A9:94:A4:83
            X509v3 Authority Key Identifier: 
                keyid:63:96:20:CF:4E:69:74:B6:23:9D:EA:68:27:19:48:00:45:13:C6:71
                DirName:/C=AQ/ST=White/L=D3cktown/O=D3ckasaurusRex/CN=cd0b84f710d6fc2316e6c4755804fcc8
                serial:AC:9B:49:47:7E:6A:EE:F2

            X509v3 Extended Key Usage: 
                TLS Web Client Authentication
            X509v3 Key Usage: 
                Digital Signature
    Signature Algorithm: sha256WithRSAEncryption
         19:9c:17:5a:11:f8:bd:6d:93:d7:b0:d0:b3:bf:02:19:05:bb:
         a5:ff:f6:13:62:f0:82:b1:e0:75:ce:12:b3:95:fa:bc:31:fe:
         8a:e9:e5:80:31:99:39:9b:b9:74:d3:2e:0b:51:24:9f:5a:1f:
         47:ea:8a:30:85:9a:21:c9:f1:72:72:7c:24:c0:8d:a7:45:05:
         58:7b:57:95:da:36:f6:d0:2a:b9:eb:26:ed:08:85:4c:ff:6a:
         73:0f:da:f5:55:25:f4:6d:e3:54:62:6c:e6:59:5d:4a:19:22:
         29:dc:b6:13:56:84:65:1e:74:5d:fa:ad:f6:4a:b4:65:7e:3a:
         f5:b5
-----BEGIN CERTIFICATE-----
MIIDozCCAwygAwIBAgIQLyJgHUzJZ4WwgNdv90aMSTANBgkqhkiG9w0BAQsFADB0
MQswCQYDVQQGEwJBUTEOMAwGA1UECAwFV2hpdGUxETAPBgNVBAcMCEQzY2t0b3du
MRcwFQYDVQQKDA5EM2NrYXNhdXJ1c1JleDEpMCcGA1UEAwwgY2QwYjg0ZjcxMGQ2
ZmMyMzE2ZTZjNDc1NTgwNGZjYzgwHhcNMTQwOTE3MDQ1MDE4WhcNMTUwOTE3MDQ1
MDE4WjB0MQswCQYDVQQGEwJBUTEOMAwGA1UECAwFV2hpdGUxETAPBgNVBAcMCEQz
Y2t0b3duMRcwFQYDVQQKDA5EM2NrYXNhdXJ1c1JleDEpMCcGA1UEAwwgMjk3NTc4
YzZiOTQwNjk3MGFjZDk3YWM3MWIwMGE3OTIwgZ8wDQYJKoZIhvcNAQEBBQADgY0A
MIGJAoGBAOTWKvwLMIOwFr1avgOIuYJ5axNrE3XgO0bq94ER5kjIfy9OU9Y++DJa
tWLa4Ckdb+T06W4owspxy1ag5ibNqtA5f1tJNirrxRJlj7zFLcW/4W7yd3cvEKmo
d6iwOqCQ0YDCriTo52MYzwMQKIfxLHHuLq7evCL2fSAeh4HwaYr9AgMBAAGjggE0
MIIBMDAJBgNVHRMEAjAAMBEGCWCGSAGG+EIBAQQEAwIHgDAmBglghkgBhvhCAQ0E
GRYXZDNjayBDbGllbnQgQ2VydGlmaWNhdGUwHQYDVR0OBBYEFJhqqGD8FzEZdE/z
A+w8YhCplKSDMIGmBgNVHSMEgZ4wgZuAFGOWIM9OaXS2I53qaCcZSABFE8ZxoXik
djB0MQswCQYDVQQGEwJBUTEOMAwGA1UECAwFV2hpdGUxETAPBgNVBAcMCEQzY2t0
b3duMRcwFQYDVQQKDA5EM2NrYXNhdXJ1c1JleDEpMCcGA1UEAwwgY2QwYjg0Zjcx
MGQ2ZmMyMzE2ZTZjNDc1NTgwNGZjYziCCQCsm0lHfmru8jATBgNVHSUEDDAKBggr
BgEFBQcDAjALBgNVHQ8EBAMCB4AwDQYJKoZIhvcNAQELBQADgYEAGZwXWhH4vW2T
17DQs78CGQW7pf/2E2LwgrHgdc4Ss5X6vDH+iunlgDGZOZu5dNMuC1Ekn1ofR+qK
MIWaIcnxcnJ8JMCNp0UFWHtXldo29tAquesm7QiFTP9qcw/a9VUl9G3jVGJs5lld
ShkiKdy2E1aEZR50Xfqt9kq0ZX469bU=
-----END CERTIFICATE-----
