Certificate:
    Data:
        Version: 3 (0x2)
        Serial Number:
            92:55:00:d4:3c:2e:96:10:1c:0d:ab:97:7c:95:b7:48
    Signature Algorithm: sha256WithRSAEncryption
        Issuer: C=AQ, ST=White, L=D3cktown, O=D3ckasaurusRex, CN=3977b0fa1c9c4e4b09c751f4992b9669
        Validity
            Not Before: Oct 30 05:05:32 2014 GMT
            Not After : Oct 30 05:05:32 2015 GMT
        Subject: C=AQ, ST=White, L=D3cktown, O=D3ckasaurusRex, CN=e41b18274a39bd6437a4e61610df1b5b
        Subject Public Key Info:
            Public Key Algorithm: rsaEncryption
                Public-Key: (2048 bit)
                Modulus:
                    00:b8:71:3e:2e:86:43:5d:08:90:19:b2:e9:76:68:
                    57:66:12:e8:09:da:d8:7e:0d:8e:c5:30:cf:59:b6:
                    fa:71:01:32:2e:52:d5:5a:9d:33:30:c1:a1:26:b4:
                    f5:37:08:96:af:a7:6d:cd:ea:f1:51:55:08:92:32:
                    dd:e5:c2:ab:c7:ae:6e:76:7f:26:9d:e2:ea:d1:da:
                    99:46:0a:c7:6c:8f:e0:ef:8b:40:3a:44:f3:2a:e6:
                    ef:c9:79:68:1b:6c:d4:e1:58:6f:57:17:94:80:1f:
                    33:fe:fd:f2:22:78:f2:8a:0f:15:ad:18:7e:b3:21:
                    cc:f0:f7:53:c3:32:0e:a7:7e:c8:1b:c9:be:ac:36:
                    a8:c5:9b:61:a4:b2:7c:d8:4e:a4:69:4e:67:b5:2f:
                    ec:6e:8e:ce:26:2c:02:91:b0:4d:58:56:b4:5c:cb:
                    71:38:68:0b:b5:52:ad:fd:d5:30:a2:ec:49:21:ea:
                    7c:df:64:02:92:18:48:6c:7d:2f:1f:11:3f:31:5d:
                    09:69:c4:c9:62:24:2e:29:35:c3:5f:a5:34:ec:2f:
                    9c:f6:46:a1:bf:3a:c3:ce:62:6f:e7:92:ed:bd:03:
                    2c:53:91:ae:db:b9:b2:50:ab:25:a0:54:e2:fd:e2:
                    c8:c8:2e:b4:b0:1c:c7:6e:5f:3e:c9:d0:a1:02:dd:
                    35:3f
                Exponent: 65537 (0x10001)
        X509v3 extensions:
            X509v3 Basic Constraints: 
                CA:FALSE
            Netscape Cert Type: 
                SSL Client
            Netscape Comment: 
                d3ck Client Certificate
            X509v3 Subject Key Identifier: 
                81:94:28:D1:31:0E:74:EB:D7:BA:20:28:03:31:A0:87:21:85:A7:A6
            X509v3 Authority Key Identifier: 
                keyid:E7:65:06:CA:2F:B5:81:5E:26:A2:2A:19:D6:41:F5:FC:E6:50:5B:C1
                DirName:/C=AQ/ST=White/L=D3cktown/O=D3ckasaurusRex/CN=3977b0fa1c9c4e4b09c751f4992b9669
                serial:B2:B1:96:5D:92:EC:C9:B2

            X509v3 Extended Key Usage: 
                TLS Web Client Authentication
            X509v3 Key Usage: 
                Digital Signature
    Signature Algorithm: sha256WithRSAEncryption
         38:f4:70:a6:b5:24:35:af:19:5e:8c:f7:f2:13:63:a7:7f:63:
         82:e1:9a:96:21:f2:3f:ca:b5:02:a7:53:87:de:3b:ac:7e:5a:
         5b:77:38:3f:02:43:4a:72:75:1b:41:32:36:07:eb:13:d0:5b:
         38:74:ce:bb:78:b1:7b:32:91:df:1e:4f:b8:8e:38:f5:ff:86:
         95:b5:fb:6a:19:ca:dc:78:4f:18:9f:8c:1f:4d:28:0b:2f:f1:
         6a:c9:02:b2:76:7a:dc:18:d6:7b:e2:2d:b9:13:9b:48:5c:69:
         39:1d:88:6d:a1:bc:d9:4e:ac:b2:bb:b8:34:fe:61:a0:6a:43:
         29:71:dc:bf:fa:87:78:14:68:1c:13:bd:13:9e:45:03:db:e9:
         4f:89:93:bd:22:ce:27:47:e2:c0:ae:3e:1e:69:d6:b1:0b:19:
         40:29:4c:ea:a9:69:b7:50:f8:b1:89:26:cb:ef:eb:b1:a6:e2:
         ce:1d:a4:27:77:a4:c9:99:29:e0:2d:ac:50:d1:3f:84:00:d8:
         c1:2e:53:ff:cc:e8:7c:b4:aa:fc:cf:21:0b:5f:50:3c:78:e3:
         81:d1:d2:86:fb:27:87:6b:5e:b0:5e:29:d6:e4:4d:e7:ba:4a:
         ca:51:6c:9b:f3:69:1f:3a:d9:96:99:27:22:40:6d:c6:49:3d:
         32:66:e6:cf
-----BEGIN CERTIFICATE-----
MIIEqTCCA5GgAwIBAgIRAJJVANQ8LpYQHA2rl3yVt0gwDQYJKoZIhvcNAQELBQAw
dDELMAkGA1UEBhMCQVExDjAMBgNVBAgMBVdoaXRlMREwDwYDVQQHDAhEM2NrdG93
bjEXMBUGA1UECgwORDNja2FzYXVydXNSZXgxKTAnBgNVBAMMIDM5NzdiMGZhMWM5
YzRlNGIwOWM3NTFmNDk5MmI5NjY5MB4XDTE0MTAzMDA1MDUzMloXDTE1MTAzMDA1
MDUzMlowdDELMAkGA1UEBhMCQVExDjAMBgNVBAgMBVdoaXRlMREwDwYDVQQHDAhE
M2NrdG93bjEXMBUGA1UECgwORDNja2FzYXVydXNSZXgxKTAnBgNVBAMMIGU0MWIx
ODI3NGEzOWJkNjQzN2E0ZTYxNjEwZGYxYjViMIIBIjANBgkqhkiG9w0BAQEFAAOC
AQ8AMIIBCgKCAQEAuHE+LoZDXQiQGbLpdmhXZhLoCdrYfg2OxTDPWbb6cQEyLlLV
Wp0zMMGhJrT1NwiWr6dtzerxUVUIkjLd5cKrx65udn8mneLq0dqZRgrHbI/g74tA
OkTzKubvyXloG2zU4VhvVxeUgB8z/v3yInjyig8VrRh+syHM8PdTwzIOp37IG8m+
rDaoxZthpLJ82E6kaU5ntS/sbo7OJiwCkbBNWFa0XMtxOGgLtVKt/dUwouxJIep8
32QCkhhIbH0vHxE/MV0JacTJYiQuKTXDX6U07C+c9kahvzrDzmJv55LtvQMsU5Gu
27myUKsloFTi/eLIyC60sBzHbl8+ydChAt01PwIDAQABo4IBNDCCATAwCQYDVR0T
BAIwADARBglghkgBhvhCAQEEBAMCB4AwJgYJYIZIAYb4QgENBBkWF2QzY2sgQ2xp
ZW50IENlcnRpZmljYXRlMB0GA1UdDgQWBBSBlCjRMQ5069e6ICgDMaCHIYWnpjCB
pgYDVR0jBIGeMIGbgBTnZQbKL7WBXiaiKhnWQfX85lBbwaF4pHYwdDELMAkGA1UE
BhMCQVExDjAMBgNVBAgMBVdoaXRlMREwDwYDVQQHDAhEM2NrdG93bjEXMBUGA1UE
CgwORDNja2FzYXVydXNSZXgxKTAnBgNVBAMMIDM5NzdiMGZhMWM5YzRlNGIwOWM3
NTFmNDk5MmI5NjY5ggkAsrGWXZLsybIwEwYDVR0lBAwwCgYIKwYBBQUHAwIwCwYD
VR0PBAQDAgeAMA0GCSqGSIb3DQEBCwUAA4IBAQA49HCmtSQ1rxlejPfyE2Onf2OC
4ZqWIfI/yrUCp1OH3jusflpbdzg/AkNKcnUbQTI2B+sT0Fs4dM67eLF7MpHfHk+4
jjj1/4aVtftqGcrceE8Yn4wfTSgLL/FqyQKydnrcGNZ74i25E5tIXGk5HYhtobzZ
Tqyyu7g0/mGgakMpcdy/+od4FGgcE70TnkUD2+lPiZO9Is4nR+LArj4eadaxCxlA
KUzqqWm3UPixiSbL7+uxpuLOHaQnd6TJmSngLaxQ0T+EANjBLlP/zOh8tKr8zyEL
X1A8eOOB0dKG+yeHa16wXinW5E3nukrKUWyb82kfOtmWmSciQG3GST0yZubP
-----END CERTIFICATE-----
