Certificate:
    Data:
        Version: 3 (0x2)
        Serial Number:
            e6:b0:91:7f:8a:7a:80:10:06:33:3d:74:e3:cf:ab:0f
    Signature Algorithm: sha256WithRSAEncryption
        Issuer: C=AQ, ST=White, L=D3cktown, O=D3ckasaurusRex, CN=76d6a18dfa8e027971bedd77e7296e46
        Validity
            Not Before: Oct  5 18:02:03 2014 GMT
            Not After : Oct  5 18:02:03 2015 GMT
        Subject: C=AQ, ST=White, L=D3cktown, O=D3ckasaurusRex, CN=0d0f394b7d47aa98445e3baeb8d0fa6d
        Subject Public Key Info:
            Public Key Algorithm: rsaEncryption
                Public-Key: (2048 bit)
                Modulus:
                    00:cf:1d:69:8f:6f:63:e3:b8:a7:a5:8d:27:d3:75:
                    64:93:a7:d7:79:7e:bd:99:c9:fa:8b:59:ce:92:bc:
                    f4:1d:bd:3b:da:ed:1a:4d:29:13:87:c1:fc:78:d4:
                    ce:b2:c0:27:c4:65:33:4d:35:75:03:50:47:c3:0c:
                    63:aa:98:87:6c:0a:f7:ce:9b:17:e6:d6:44:93:a3:
                    f1:de:72:98:ea:fa:5d:ce:fb:7a:f8:60:93:e0:a6:
                    01:ae:66:47:4f:bd:33:cb:e6:5e:67:35:bf:04:c1:
                    ec:98:d7:7f:05:0d:14:e7:ab:65:36:40:74:4b:6b:
                    6b:93:d7:08:47:25:f3:9c:87:15:6d:6c:b2:f1:0d:
                    e1:97:d3:2d:ec:62:a6:37:ae:bb:6c:aa:20:5e:e0:
                    8e:9b:90:2d:cb:34:61:99:85:b6:f5:e6:61:53:3c:
                    41:95:e4:95:82:a4:92:17:d1:67:c8:cc:fd:da:e8:
                    31:ed:3c:e9:5e:89:42:5a:e8:46:6b:3d:0e:e3:c8:
                    3e:9d:18:ce:28:cd:50:4c:3d:16:6c:44:f9:7e:4f:
                    53:9a:48:fe:00:98:6e:df:ef:b4:e2:5b:2d:18:0f:
                    48:a5:bf:76:6c:88:5e:28:ce:e4:2d:7c:40:d2:f0:
                    49:96:13:bb:a1:f7:37:1a:06:64:ad:8a:2c:42:4d:
                    cb:e5
                Exponent: 65537 (0x10001)
        X509v3 extensions:
            X509v3 Basic Constraints: 
                CA:FALSE
            Netscape Cert Type: 
                SSL Client
            Netscape Comment: 
                d3ck Client Certificate
            X509v3 Subject Key Identifier: 
                8E:2D:F2:D5:BE:F9:B3:4A:38:C0:1B:42:7A:F8:E4:2D:F4:66:FA:FB
            X509v3 Authority Key Identifier: 
                keyid:20:BE:A6:18:18:A4:04:6F:37:17:87:35:7D:98:F5:35:2C:B2:C2:2F
                DirName:/C=AQ/ST=White/L=D3cktown/O=D3ckasaurusRex/CN=76d6a18dfa8e027971bedd77e7296e46
                serial:DD:7B:F8:24:4B:FC:7D:B6

            X509v3 Extended Key Usage: 
                TLS Web Client Authentication
            X509v3 Key Usage: 
                Digital Signature
    Signature Algorithm: sha256WithRSAEncryption
         c2:52:a8:ac:32:d3:b1:4e:91:8f:f9:91:13:f2:33:3c:98:d5:
         41:48:80:e4:43:68:4d:21:49:3c:47:2d:db:36:76:b3:95:52:
         ad:f9:f0:3d:0e:67:1d:69:8d:13:b2:43:e0:07:23:46:b2:30:
         72:b2:1a:8e:e8:84:9f:bc:1d:a4:c9:ba:36:8b:12:aa:ea:e1:
         0d:71:d4:5d:4c:7b:9c:cd:76:e4:dc:01:84:16:da:30:9b:bc:
         98:eb:c8:2f:38:55:77:1a:60:b9:33:b0:c6:df:39:b9:e0:41:
         fb:4d:67:55:7d:66:df:44:1a:fa:a2:5e:7a:4b:c7:cb:c8:4a:
         3b:a1:25:df:05:e5:c8:41:86:eb:bd:a3:8a:46:56:46:e5:ad:
         67:cd:95:e5:76:b4:42:bd:ac:75:ca:c6:1c:ba:98:b8:52:55:
         9d:36:13:ac:72:2f:a2:30:81:16:26:49:9b:fd:1b:ad:f3:3d:
         b0:c3:eb:11:f7:47:0b:f8:eb:13:a8:12:84:a1:c6:93:b8:84:
         ce:b2:d8:ea:d1:9a:bc:ae:a8:aa:24:32:b0:02:af:a2:7c:e8:
         f5:4c:be:1c:c2:63:8b:86:f1:00:ba:09:25:bd:2e:cc:50:c2:
         a6:de:41:d2:d0:fb:8e:29:5d:dc:87:77:df:4d:67:56:db:c4:
         36:04:d3:aa
-----BEGIN CERTIFICATE-----
MIIEqTCCA5GgAwIBAgIRAOawkX+KeoAQBjM9dOPPqw8wDQYJKoZIhvcNAQELBQAw
dDELMAkGA1UEBhMCQVExDjAMBgNVBAgMBVdoaXRlMREwDwYDVQQHDAhEM2NrdG93
bjEXMBUGA1UECgwORDNja2FzYXVydXNSZXgxKTAnBgNVBAMMIDc2ZDZhMThkZmE4
ZTAyNzk3MWJlZGQ3N2U3Mjk2ZTQ2MB4XDTE0MTAwNTE4MDIwM1oXDTE1MTAwNTE4
MDIwM1owdDELMAkGA1UEBhMCQVExDjAMBgNVBAgMBVdoaXRlMREwDwYDVQQHDAhE
M2NrdG93bjEXMBUGA1UECgwORDNja2FzYXVydXNSZXgxKTAnBgNVBAMMIDBkMGYz
OTRiN2Q0N2FhOTg0NDVlM2JhZWI4ZDBmYTZkMIIBIjANBgkqhkiG9w0BAQEFAAOC
AQ8AMIIBCgKCAQEAzx1pj29j47inpY0n03Vkk6fXeX69mcn6i1nOkrz0Hb072u0a
TSkTh8H8eNTOssAnxGUzTTV1A1BHwwxjqpiHbAr3zpsX5tZEk6Px3nKY6vpdzvt6
+GCT4KYBrmZHT70zy+ZeZzW/BMHsmNd/BQ0U56tlNkB0S2trk9cIRyXznIcVbWyy
8Q3hl9Mt7GKmN667bKogXuCOm5AtyzRhmYW29eZhUzxBleSVgqSSF9FnyMz92ugx
7TzpXolCWuhGaz0O48g+nRjOKM1QTD0WbET5fk9Tmkj+AJhu3++04lstGA9Ipb92
bIheKM7kLXxA0vBJlhO7ofc3GgZkrYosQk3L5QIDAQABo4IBNDCCATAwCQYDVR0T
BAIwADARBglghkgBhvhCAQEEBAMCB4AwJgYJYIZIAYb4QgENBBkWF2QzY2sgQ2xp
ZW50IENlcnRpZmljYXRlMB0GA1UdDgQWBBSOLfLVvvmzSjjAG0J6+OQt9Gb6+zCB
pgYDVR0jBIGeMIGbgBQgvqYYGKQEbzcXhzV9mPU1LLLCL6F4pHYwdDELMAkGA1UE
BhMCQVExDjAMBgNVBAgMBVdoaXRlMREwDwYDVQQHDAhEM2NrdG93bjEXMBUGA1UE
CgwORDNja2FzYXVydXNSZXgxKTAnBgNVBAMMIDc2ZDZhMThkZmE4ZTAyNzk3MWJl
ZGQ3N2U3Mjk2ZTQ2ggkA3Xv4JEv8fbYwEwYDVR0lBAwwCgYIKwYBBQUHAwIwCwYD
VR0PBAQDAgeAMA0GCSqGSIb3DQEBCwUAA4IBAQDCUqisMtOxTpGP+ZET8jM8mNVB
SIDkQ2hNIUk8Ry3bNnazlVKt+fA9DmcdaY0TskPgByNGsjByshqO6ISfvB2kybo2
ixKq6uENcdRdTHuczXbk3AGEFtowm7yY68gvOFV3GmC5M7DG3zm54EH7TWdVfWbf
RBr6ol56S8fLyEo7oSXfBeXIQYbrvaOKRlZG5a1nzZXldrRCvax1ysYcupi4UlWd
NhOsci+iMIEWJkmb/Rut8z2ww+sR90cL+OsTqBKEocaTuITOstjq0Zq8rqiqJDKw
Aq+ifOj1TL4cwmOLhvEAugklvS7MUMKm3kHS0PuOKV3ch3ffTWdW28Q2BNOq
-----END CERTIFICATE-----
