Certificate:
    Data:
        Version: 3 (0x2)
        Serial Number:
            c9:19:44:50:d1:d2:7e:cf:9f:4d:c8:8c:97:05:97:71
    Signature Algorithm: sha256WithRSAEncryption
        Issuer: C=AQ, ST=White, L=D3cktown, O=D3ckasaurusRex, CN=7832c275b04237cf8c250a9f1bb4ffbc
        Validity
            Not Before: Oct  7 17:50:24 2014 GMT
            Not After : Oct  7 17:50:24 2015 GMT
        Subject: C=AQ, ST=White, L=D3cktown, O=D3ckasaurusRex, CN=f96eb0527220f4deff7e12a04fb10751
        Subject Public Key Info:
            Public Key Algorithm: rsaEncryption
                Public-Key: (2048 bit)
                Modulus:
                    00:e7:51:b8:bf:2d:c6:d8:3e:99:11:fd:f2:bf:9e:
                    97:28:0b:82:0e:f1:b2:5a:50:e8:c5:01:e1:b2:59:
                    cc:19:1d:76:e1:0a:ab:2a:08:a0:44:81:61:71:c1:
                    6d:99:7c:02:d6:bc:d1:c0:09:a6:8c:6d:9b:d8:92:
                    b6:a1:be:a2:13:83:ad:dd:e8:41:2c:dc:28:d0:8c:
                    11:5a:cb:f5:34:21:c2:46:4b:67:de:60:cf:e6:bf:
                    1c:b9:25:43:85:85:4c:74:b1:59:00:0e:e1:5b:59:
                    55:44:c8:fc:71:79:f0:c3:d9:ed:f8:c3:ce:a0:eb:
                    54:e7:6d:e7:87:12:43:99:22:e4:58:b5:54:26:90:
                    cf:50:0b:57:66:8f:84:d9:3e:ab:9c:da:42:1a:19:
                    b5:46:ac:e0:eb:0c:3e:4d:4b:e9:e8:81:06:c8:7a:
                    85:ca:6c:13:c4:56:32:83:a5:f2:ae:36:5e:c7:a2:
                    0f:f2:1c:0f:95:2d:ae:2b:43:07:be:0f:ab:23:b7:
                    56:bc:f1:49:ce:28:dc:79:cc:39:f3:1e:e1:73:9f:
                    cb:0e:0f:63:a0:0a:a2:a9:01:55:94:9b:22:18:9a:
                    a6:de:15:8f:82:56:31:13:29:71:6e:e2:8a:19:74:
                    ab:e9:00:88:5a:da:67:df:2e:c1:4d:05:c1:7a:1c:
                    bb:71
                Exponent: 65537 (0x10001)
        X509v3 extensions:
            X509v3 Basic Constraints: 
                CA:FALSE
            Netscape Cert Type: 
                SSL Client
            Netscape Comment: 
                d3ck Client Certificate
            X509v3 Subject Key Identifier: 
                A6:5C:5F:33:DC:2F:DF:4B:EA:72:08:06:62:AA:60:02:78:07:97:E2
            X509v3 Authority Key Identifier: 
                keyid:87:B9:B9:EF:03:72:28:30:72:3E:CD:B2:C4:4A:EC:A0:11:18:D8:74
                DirName:/C=AQ/ST=White/L=D3cktown/O=D3ckasaurusRex/CN=7832c275b04237cf8c250a9f1bb4ffbc
                serial:F2:7A:9D:30:8F:AD:DE:18

            X509v3 Extended Key Usage: 
                TLS Web Client Authentication
            X509v3 Key Usage: 
                Digital Signature
    Signature Algorithm: sha256WithRSAEncryption
         10:9d:1e:1f:81:4e:8c:79:41:91:56:31:2d:33:f5:6e:6f:59:
         f8:e6:68:91:9d:14:4a:2c:5a:9a:33:59:98:97:c2:e1:ef:8d:
         e8:a0:1c:04:85:71:bc:5a:a1:0e:42:e6:a5:b4:6d:d9:85:44:
         d1:ec:b6:49:eb:48:18:a0:1a:60:ef:77:fb:1e:1b:85:97:0a:
         24:97:44:c7:48:ac:5d:56:28:d5:e8:60:3b:b3:17:11:f6:00:
         4e:59:b9:92:00:32:37:6b:e8:7d:d2:19:e7:5b:da:22:c6:7f:
         1e:d0:57:27:c2:12:40:47:0c:84:0c:10:e0:18:68:4b:97:9d:
         f9:62:cd:15:f7:f5:dc:6d:ea:d1:33:8c:16:35:c0:6d:91:5b:
         31:e4:ed:79:84:b3:9e:50:fd:30:c7:d1:d6:f4:78:cf:79:8d:
         0a:bc:81:e0:6a:ac:f2:0d:fb:8f:17:86:ad:13:14:7e:1c:1a:
         a1:87:6d:37:9b:6e:a7:e8:8a:af:c9:a9:b1:e7:97:fd:3a:0d:
         43:39:25:fa:ce:08:18:33:95:d7:27:17:3d:d2:12:c2:81:30:
         6a:18:3a:e3:ff:78:7a:58:13:74:28:51:ff:9f:ab:1b:d6:c6:
         fd:8c:54:a7:da:10:ae:a5:fd:e1:7e:ac:f1:60:7d:76:71:89:
         cc:94:c0:0f
-----BEGIN CERTIFICATE-----
MIIEqTCCA5GgAwIBAgIRAMkZRFDR0n7Pn03IjJcFl3EwDQYJKoZIhvcNAQELBQAw
dDELMAkGA1UEBhMCQVExDjAMBgNVBAgMBVdoaXRlMREwDwYDVQQHDAhEM2NrdG93
bjEXMBUGA1UECgwORDNja2FzYXVydXNSZXgxKTAnBgNVBAMMIDc4MzJjMjc1YjA0
MjM3Y2Y4YzI1MGE5ZjFiYjRmZmJjMB4XDTE0MTAwNzE3NTAyNFoXDTE1MTAwNzE3
NTAyNFowdDELMAkGA1UEBhMCQVExDjAMBgNVBAgMBVdoaXRlMREwDwYDVQQHDAhE
M2NrdG93bjEXMBUGA1UECgwORDNja2FzYXVydXNSZXgxKTAnBgNVBAMMIGY5NmVi
MDUyNzIyMGY0ZGVmZjdlMTJhMDRmYjEwNzUxMIIBIjANBgkqhkiG9w0BAQEFAAOC
AQ8AMIIBCgKCAQEA51G4vy3G2D6ZEf3yv56XKAuCDvGyWlDoxQHhslnMGR124Qqr
KgigRIFhccFtmXwC1rzRwAmmjG2b2JK2ob6iE4Ot3ehBLNwo0IwRWsv1NCHCRktn
3mDP5r8cuSVDhYVMdLFZAA7hW1lVRMj8cXnww9nt+MPOoOtU523nhxJDmSLkWLVU
JpDPUAtXZo+E2T6rnNpCGhm1Rqzg6ww+TUvp6IEGyHqFymwTxFYyg6XyrjZex6IP
8hwPlS2uK0MHvg+rI7dWvPFJzijcecw58x7hc5/LDg9joAqiqQFVlJsiGJqm3hWP
glYxEylxbuKKGXSr6QCIWtpn3y7BTQXBehy7cQIDAQABo4IBNDCCATAwCQYDVR0T
BAIwADARBglghkgBhvhCAQEEBAMCB4AwJgYJYIZIAYb4QgENBBkWF2QzY2sgQ2xp
ZW50IENlcnRpZmljYXRlMB0GA1UdDgQWBBSmXF8z3C/fS+pyCAZiqmACeAeX4jCB
pgYDVR0jBIGeMIGbgBSHubnvA3IoMHI+zbLESuygERjYdKF4pHYwdDELMAkGA1UE
BhMCQVExDjAMBgNVBAgMBVdoaXRlMREwDwYDVQQHDAhEM2NrdG93bjEXMBUGA1UE
CgwORDNja2FzYXVydXNSZXgxKTAnBgNVBAMMIDc4MzJjMjc1YjA0MjM3Y2Y4YzI1
MGE5ZjFiYjRmZmJjggkA8nqdMI+t3hgwEwYDVR0lBAwwCgYIKwYBBQUHAwIwCwYD
VR0PBAQDAgeAMA0GCSqGSIb3DQEBCwUAA4IBAQAQnR4fgU6MeUGRVjEtM/Vub1n4
5miRnRRKLFqaM1mYl8Lh743ooBwEhXG8WqEOQualtG3ZhUTR7LZJ60gYoBpg73f7
HhuFlwokl0THSKxdVijV6GA7sxcR9gBOWbmSADI3a+h90hnnW9oixn8e0FcnwhJA
RwyEDBDgGGhLl535Ys0V9/XcberRM4wWNcBtkVsx5O15hLOeUP0wx9HW9HjPeY0K
vIHgaqzyDfuPF4atExR+HBqhh203m26n6Iqvyamx55f9Og1DOSX6zggYM5XXJxc9
0hLCgTBqGDrj/3h6WBN0KFH/n6sb1sb9jFSn2hCupf3hfqzxYH12cYnMlMAP
-----END CERTIFICATE-----
