Certificate:
    Data:
        Version: 3 (0x2)
        Serial Number:
            0f:30:99:a2:98:f1:96:01:4e:44:64:2e:6d:f3:82:d7
    Signature Algorithm: sha256WithRSAEncryption
        Issuer: C=AQ, ST=White, L=D3cktown, O=D3ckasaurusRex, CN=d9b4486d64ab7381ad6449c8e4de3782
        Validity
            Not Before: Sep  5 18:20:24 2014 GMT
            Not After : Sep  5 18:20:24 2015 GMT
        Subject: C=AQ, ST=White, L=D3cktown, O=D3ckasaurusRex, CN=f3240851db7a4d2d992cedf9b1495a67
        Subject Public Key Info:
            Public Key Algorithm: rsaEncryption
                Public-Key: (1024 bit)
                Modulus:
                    00:bf:9f:a6:e4:ef:11:83:ce:43:59:4c:a6:95:19:
                    63:26:fa:28:13:13:9e:70:a6:b7:21:b7:cc:1d:5c:
                    12:b2:73:9e:f1:aa:61:57:93:b9:7c:73:67:3c:a2:
                    56:1c:6a:0b:77:79:da:ee:6f:f6:c1:e7:f9:5d:1e:
                    6b:c2:5e:a2:c3:97:02:f7:dc:37:44:3a:8c:13:37:
                    d2:4e:b0:50:48:2c:ca:20:ba:a0:59:a3:b9:35:c1:
                    35:33:36:67:ca:a7:01:59:1e:05:20:82:3f:6b:11:
                    c1:34:6f:d1:ff:15:28:9a:3f:a1:c7:d8:3d:e0:9e:
                    0b:be:54:76:5a:f1:9e:ce:f9
                Exponent: 65537 (0x10001)
        X509v3 extensions:
            X509v3 Basic Constraints: 
                CA:FALSE
            Netscape Cert Type: 
                SSL Client
            Netscape Comment: 
                d3ck Client Certificate
            X509v3 Subject Key Identifier: 
                9D:91:8F:31:31:E4:70:FF:52:0F:29:AC:18:A4:A4:7E:22:52:10:E3
            X509v3 Authority Key Identifier: 
                keyid:27:1C:CC:6D:2D:6E:9B:22:DA:DE:66:CF:9A:97:2E:6A:60:E2:6E:D1
                DirName:/C=AQ/ST=White/L=D3cktown/O=D3ckasaurusRex/CN=d9b4486d64ab7381ad6449c8e4de3782
                serial:DE:23:44:65:96:51:EA:FF

            X509v3 Extended Key Usage: 
                TLS Web Client Authentication
            X509v3 Key Usage: 
                Digital Signature
    Signature Algorithm: sha256WithRSAEncryption
         37:28:40:94:5f:7d:02:ca:3e:80:28:8b:4f:98:72:d1:0e:08:
         ca:bb:42:64:60:34:2e:fe:27:95:b6:7a:17:36:ae:59:eb:4b:
         4c:83:8a:ac:82:65:56:c3:c3:0b:11:bf:e7:fb:48:e5:a2:5e:
         8b:41:a6:ae:05:c9:42:b5:a0:04:ba:6f:fd:64:2d:23:ff:2e:
         0d:46:40:86:33:b5:41:34:ba:ea:05:fb:23:80:9a:5e:2a:ef:
         e3:c5:4d:2e:52:af:fd:bb:61:13:00:e5:6e:7a:ed:48:5b:02:
         bd:13:7c:d0:1f:4c:11:0f:c1:0c:83:dc:20:05:2e:d9:7c:a1:
         4c:8b
-----BEGIN CERTIFICATE-----
MIIDozCCAwygAwIBAgIQDzCZopjxlgFORGQubfOC1zANBgkqhkiG9w0BAQsFADB0
MQswCQYDVQQGEwJBUTEOMAwGA1UECAwFV2hpdGUxETAPBgNVBAcMCEQzY2t0b3du
MRcwFQYDVQQKDA5EM2NrYXNhdXJ1c1JleDEpMCcGA1UEAwwgZDliNDQ4NmQ2NGFi
NzM4MWFkNjQ0OWM4ZTRkZTM3ODIwHhcNMTQwOTA1MTgyMDI0WhcNMTUwOTA1MTgy
MDI0WjB0MQswCQYDVQQGEwJBUTEOMAwGA1UECAwFV2hpdGUxETAPBgNVBAcMCEQz
Y2t0b3duMRcwFQYDVQQKDA5EM2NrYXNhdXJ1c1JleDEpMCcGA1UEAwwgZjMyNDA4
NTFkYjdhNGQyZDk5MmNlZGY5YjE0OTVhNjcwgZ8wDQYJKoZIhvcNAQEBBQADgY0A
MIGJAoGBAL+fpuTvEYPOQ1lMppUZYyb6KBMTnnCmtyG3zB1cErJznvGqYVeTuXxz
ZzyiVhxqC3d52u5v9sHn+V0ea8JeosOXAvfcN0Q6jBM30k6wUEgsyiC6oFmjuTXB
NTM2Z8qnAVkeBSCCP2sRwTRv0f8VKJo/ocfYPeCeC75Udlrxns75AgMBAAGjggE0
MIIBMDAJBgNVHRMEAjAAMBEGCWCGSAGG+EIBAQQEAwIHgDAmBglghkgBhvhCAQ0E
GRYXZDNjayBDbGllbnQgQ2VydGlmaWNhdGUwHQYDVR0OBBYEFJ2RjzEx5HD/Ug8p
rBikpH4iUhDjMIGmBgNVHSMEgZ4wgZuAFCcczG0tbpsi2t5mz5qXLmpg4m7RoXik
djB0MQswCQYDVQQGEwJBUTEOMAwGA1UECAwFV2hpdGUxETAPBgNVBAcMCEQzY2t0
b3duMRcwFQYDVQQKDA5EM2NrYXNhdXJ1c1JleDEpMCcGA1UEAwwgZDliNDQ4NmQ2
NGFiNzM4MWFkNjQ0OWM4ZTRkZTM3ODKCCQDeI0RlllHq/zATBgNVHSUEDDAKBggr
BgEFBQcDAjALBgNVHQ8EBAMCB4AwDQYJKoZIhvcNAQELBQADgYEANyhAlF99Aso+
gCiLT5hy0Q4IyrtCZGA0Lv4nlbZ6FzauWetLTIOKrIJlVsPDCxG/5/tI5aJei0Gm
rgXJQrWgBLpv/WQtI/8uDUZAhjO1QTS66gX7I4CaXirv48VNLlKv/bthEwDlbnrt
SFsCvRN80B9MEQ/BDIPcIAUu2XyhTIs=
-----END CERTIFICATE-----
