Certificate:
    Data:
        Version: 3 (0x2)
        Serial Number:
            f0:fc:66:2b:f3:8c:3e:2c:d7:28:cb:9c:c9:95:e3:3d
    Signature Algorithm: sha256WithRSAEncryption
        Issuer: C=AQ, ST=White, L=D3cktown, O=D3ckasaurusRex, CN=0a45ade85e1902ed5ee0bffb4db8181c
        Validity
            Not Before: Sep  8 19:52:48 2014 GMT
            Not After : Sep  8 19:52:48 2015 GMT
        Subject: C=AQ, ST=White, L=D3cktown, O=D3ckasaurusRex, CN=e20cc92df771b3728ffa82f472ee53b5
        Subject Public Key Info:
            Public Key Algorithm: rsaEncryption
                Public-Key: (1024 bit)
                Modulus:
                    00:bb:20:53:54:b6:d6:c6:2d:50:81:c2:1b:2e:2d:
                    de:de:ab:98:39:04:94:9b:80:ee:c8:d3:2b:af:43:
                    4f:cb:f2:dd:5c:fb:20:c0:c4:66:24:17:76:ed:cd:
                    12:da:c5:64:fc:7a:6c:8d:07:64:98:7d:8a:5a:05:
                    1d:93:59:63:79:e3:a5:92:a8:e9:55:4b:74:ea:38:
                    94:86:2d:93:e8:97:91:ed:da:b4:b7:ac:e7:7a:44:
                    be:b0:9e:28:b0:1f:b3:ce:35:77:66:48:0d:2a:80:
                    ca:92:8b:6a:4b:8f:24:9f:43:d8:72:ae:67:17:02:
                    9e:40:56:96:f7:56:e7:47:c3
                Exponent: 65537 (0x10001)
        X509v3 extensions:
            X509v3 Basic Constraints: 
                CA:FALSE
            Netscape Cert Type: 
                SSL Client
            Netscape Comment: 
                d3ck Client Certificate
            X509v3 Subject Key Identifier: 
                56:45:45:03:05:E1:0E:A6:C8:05:61:99:4F:44:88:D0:49:99:5C:65
            X509v3 Authority Key Identifier: 
                keyid:C4:DB:13:07:3B:04:34:EC:AD:5B:A7:D6:53:DC:15:8C:A1:32:B2:75
                DirName:/C=AQ/ST=White/L=D3cktown/O=D3ckasaurusRex/CN=0a45ade85e1902ed5ee0bffb4db8181c
                serial:F7:C5:77:BF:C8:0F:B9:E6

            X509v3 Extended Key Usage: 
                TLS Web Client Authentication
            X509v3 Key Usage: 
                Digital Signature
    Signature Algorithm: sha256WithRSAEncryption
         a7:4b:96:4c:f7:94:b0:b8:c5:fa:24:4e:63:cb:fa:10:09:90:
         af:b8:78:19:9c:e9:98:7f:84:9e:b9:21:c7:5d:a6:6e:a7:3e:
         a8:66:86:68:f5:e3:6c:0f:f4:c1:20:7b:66:c3:b0:12:f3:14:
         98:8d:39:ab:ee:68:07:57:5f:80:b9:ad:f8:10:1a:c0:34:3c:
         d0:40:39:87:79:51:6b:10:63:fb:2b:95:11:f5:18:4f:0c:10:
         89:3a:d7:9e:cc:18:ef:66:f1:98:58:95:49:1d:3b:da:e1:e6:
         51:d4:ce:38:a6:63:a8:0c:7c:d7:af:88:77:8e:70:08:58:d0:
         d9:7d
-----BEGIN CERTIFICATE-----
MIIDpDCCAw2gAwIBAgIRAPD8ZivzjD4s1yjLnMmV4z0wDQYJKoZIhvcNAQELBQAw
dDELMAkGA1UEBhMCQVExDjAMBgNVBAgMBVdoaXRlMREwDwYDVQQHDAhEM2NrdG93
bjEXMBUGA1UECgwORDNja2FzYXVydXNSZXgxKTAnBgNVBAMMIDBhNDVhZGU4NWUx
OTAyZWQ1ZWUwYmZmYjRkYjgxODFjMB4XDTE0MDkwODE5NTI0OFoXDTE1MDkwODE5
NTI0OFowdDELMAkGA1UEBhMCQVExDjAMBgNVBAgMBVdoaXRlMREwDwYDVQQHDAhE
M2NrdG93bjEXMBUGA1UECgwORDNja2FzYXVydXNSZXgxKTAnBgNVBAMMIGUyMGNj
OTJkZjc3MWIzNzI4ZmZhODJmNDcyZWU1M2I1MIGfMA0GCSqGSIb3DQEBAQUAA4GN
ADCBiQKBgQC7IFNUttbGLVCBwhsuLd7eq5g5BJSbgO7I0yuvQ0/L8t1c+yDAxGYk
F3btzRLaxWT8emyNB2SYfYpaBR2TWWN546WSqOlVS3TqOJSGLZPol5Ht2rS3rOd6
RL6wniiwH7PONXdmSA0qgMqSi2pLjySfQ9hyrmcXAp5AVpb3VudHwwIDAQABo4IB
NDCCATAwCQYDVR0TBAIwADARBglghkgBhvhCAQEEBAMCB4AwJgYJYIZIAYb4QgEN
BBkWF2QzY2sgQ2xpZW50IENlcnRpZmljYXRlMB0GA1UdDgQWBBRWRUUDBeEOpsgF
YZlPRIjQSZlcZTCBpgYDVR0jBIGeMIGbgBTE2xMHOwQ07K1bp9ZT3BWMoTKydaF4
pHYwdDELMAkGA1UEBhMCQVExDjAMBgNVBAgMBVdoaXRlMREwDwYDVQQHDAhEM2Nr
dG93bjEXMBUGA1UECgwORDNja2FzYXVydXNSZXgxKTAnBgNVBAMMIDBhNDVhZGU4
NWUxOTAyZWQ1ZWUwYmZmYjRkYjgxODFjggkA98V3v8gPueYwEwYDVR0lBAwwCgYI
KwYBBQUHAwIwCwYDVR0PBAQDAgeAMA0GCSqGSIb3DQEBCwUAA4GBAKdLlkz3lLC4
xfokTmPL+hAJkK+4eBmc6Zh/hJ65Icddpm6nPqhmhmj142wP9MEge2bDsBLzFJiN
OavuaAdXX4C5rfgQGsA0PNBAOYd5UWsQY/srlRH1GE8MEIk6157MGO9m8ZhYlUkd
O9rh5lHUzjimY6gMfNeviHeOcAhY0Nl9
-----END CERTIFICATE-----
