Certificate:
    Data:
        Version: 3 (0x2)
        Serial Number:
            e6:b0:91:7f:8a:7a:80:10:06:33:3d:74:e3:cf:aa:c8
    Signature Algorithm: sha256WithRSAEncryption
        Issuer: C=AQ, ST=White, L=D3cktown, O=D3ckasaurusRex, CN=76d6a18dfa8e027971bedd77e7296e46
        Validity
            Not Before: Oct  4 21:50:04 2014 GMT
            Not After : Oct  4 21:50:04 2015 GMT
        Subject: C=AQ, ST=White, L=D3cktown, O=D3ckasaurusRex, CN=da7350c0a1c17272a758d43772a4bad1
        Subject Public Key Info:
            Public Key Algorithm: rsaEncryption
                Public-Key: (2048 bit)
                Modulus:
                    00:b2:bf:2a:14:c7:c4:68:61:ad:84:cb:1f:c4:1e:
                    95:d0:72:78:1f:9f:f2:8d:90:9f:5b:07:75:52:97:
                    64:87:0a:fb:dd:fe:dd:74:f6:4b:d7:09:b9:37:83:
                    b2:bc:20:99:65:a6:f7:47:4c:ae:f8:23:dd:ff:a0:
                    b0:78:ae:15:c0:38:b3:d5:1f:0d:35:87:53:62:7e:
                    30:d6:0b:d0:30:c6:d4:40:19:20:ad:5d:8d:27:cd:
                    37:d3:31:ee:91:af:47:9c:f5:1b:28:51:9e:13:a7:
                    89:df:1f:b9:aa:07:40:8f:06:1e:75:40:c0:5c:cb:
                    91:e3:a2:0f:8c:65:37:7b:d1:fd:f7:85:27:fc:bf:
                    aa:13:75:32:1b:62:7a:c8:b9:94:36:b7:46:24:e9:
                    14:64:cc:3b:e1:bd:d9:b8:7b:87:4e:42:9b:1f:db:
                    9a:70:eb:c2:39:10:f2:f7:de:a8:37:c0:c6:75:4b:
                    00:1c:1b:6c:79:ea:e4:df:cb:14:37:d6:b2:a6:f0:
                    06:cf:9d:25:da:3d:ee:9e:b6:33:2d:65:2b:38:42:
                    70:a6:ed:81:25:fd:de:e8:81:11:c6:41:b9:c6:52:
                    77:b2:4a:8e:47:ac:0f:da:2d:94:0e:87:31:fc:6d:
                    5e:ca:6f:7b:a6:62:46:e3:f4:2d:e8:31:42:8d:96:
                    56:d9
                Exponent: 65537 (0x10001)
        X509v3 extensions:
            X509v3 Basic Constraints: 
                CA:FALSE
            Netscape Cert Type: 
                SSL Client
            Netscape Comment: 
                d3ck Client Certificate
            X509v3 Subject Key Identifier: 
                9B:52:AB:89:47:3F:8D:4C:A6:1D:10:94:DF:16:4C:E4:C5:41:CD:30
            X509v3 Authority Key Identifier: 
                keyid:20:BE:A6:18:18:A4:04:6F:37:17:87:35:7D:98:F5:35:2C:B2:C2:2F
                DirName:/C=AQ/ST=White/L=D3cktown/O=D3ckasaurusRex/CN=76d6a18dfa8e027971bedd77e7296e46
                serial:DD:7B:F8:24:4B:FC:7D:B6

            X509v3 Extended Key Usage: 
                TLS Web Client Authentication
            X509v3 Key Usage: 
                Digital Signature
    Signature Algorithm: sha256WithRSAEncryption
         49:39:dc:13:1f:21:f4:b6:76:10:ee:a8:3e:6d:c3:69:ab:3c:
         0e:f0:e6:65:e5:01:23:eb:ff:a8:fa:91:c6:a0:95:1a:01:eb:
         ee:3f:a9:fa:76:15:26:b3:ca:33:85:8b:40:1c:48:43:2d:ab:
         35:34:98:d2:7c:4b:aa:e6:6e:58:af:ab:a9:60:c8:c7:7b:f2:
         9a:59:18:d4:1b:26:00:98:77:b6:cb:45:78:47:c9:30:e3:a8:
         bb:0f:1a:62:0f:ca:78:62:c4:f5:6d:d2:ab:b2:ac:1d:07:ec:
         aa:1d:64:7f:38:3d:63:c0:00:62:b1:cb:47:b8:b4:3c:09:9a:
         db:d7:65:95:9f:e1:3a:b5:c4:92:28:c7:99:8c:93:a0:d3:7f:
         24:d8:13:f7:a7:4a:93:d3:b9:b7:bd:ca:c7:b5:d7:8e:38:7e:
         0d:ac:19:61:15:4a:49:2b:aa:ad:be:be:31:5a:3f:e8:5c:9a:
         c2:cd:66:c6:14:9a:1c:49:f5:fc:79:81:25:98:84:54:2a:0f:
         0d:4c:c4:79:73:85:ea:48:5f:cf:d1:a0:a9:c4:65:5e:72:47:
         b5:91:b6:47:94:d9:55:19:34:86:5f:b4:ba:d7:83:37:30:bb:
         19:ba:0a:34:1c:26:3a:e1:96:2b:6c:d6:da:f4:6b:e8:a6:be:
         fd:c4:96:ce
-----BEGIN CERTIFICATE-----
MIIEqTCCA5GgAwIBAgIRAOawkX+KeoAQBjM9dOPPqsgwDQYJKoZIhvcNAQELBQAw
dDELMAkGA1UEBhMCQVExDjAMBgNVBAgMBVdoaXRlMREwDwYDVQQHDAhEM2NrdG93
bjEXMBUGA1UECgwORDNja2FzYXVydXNSZXgxKTAnBgNVBAMMIDc2ZDZhMThkZmE4
ZTAyNzk3MWJlZGQ3N2U3Mjk2ZTQ2MB4XDTE0MTAwNDIxNTAwNFoXDTE1MTAwNDIx
NTAwNFowdDELMAkGA1UEBhMCQVExDjAMBgNVBAgMBVdoaXRlMREwDwYDVQQHDAhE
M2NrdG93bjEXMBUGA1UECgwORDNja2FzYXVydXNSZXgxKTAnBgNVBAMMIGRhNzM1
MGMwYTFjMTcyNzJhNzU4ZDQzNzcyYTRiYWQxMIIBIjANBgkqhkiG9w0BAQEFAAOC
AQ8AMIIBCgKCAQEAsr8qFMfEaGGthMsfxB6V0HJ4H5/yjZCfWwd1Updkhwr73f7d
dPZL1wm5N4OyvCCZZab3R0yu+CPd/6CweK4VwDiz1R8NNYdTYn4w1gvQMMbUQBkg
rV2NJ8030zHuka9HnPUbKFGeE6eJ3x+5qgdAjwYedUDAXMuR46IPjGU3e9H994Un
/L+qE3UyG2J6yLmUNrdGJOkUZMw74b3ZuHuHTkKbH9uacOvCORDy996oN8DGdUsA
HBtseerk38sUN9aypvAGz50l2j3unrYzLWUrOEJwpu2BJf3e6IERxkG5xlJ3skqO
R6wP2i2UDocx/G1eym97pmJG4/Qt6DFCjZZW2QIDAQABo4IBNDCCATAwCQYDVR0T
BAIwADARBglghkgBhvhCAQEEBAMCB4AwJgYJYIZIAYb4QgENBBkWF2QzY2sgQ2xp
ZW50IENlcnRpZmljYXRlMB0GA1UdDgQWBBSbUquJRz+NTKYdEJTfFkzkxUHNMDCB
pgYDVR0jBIGeMIGbgBQgvqYYGKQEbzcXhzV9mPU1LLLCL6F4pHYwdDELMAkGA1UE
BhMCQVExDjAMBgNVBAgMBVdoaXRlMREwDwYDVQQHDAhEM2NrdG93bjEXMBUGA1UE
CgwORDNja2FzYXVydXNSZXgxKTAnBgNVBAMMIDc2ZDZhMThkZmE4ZTAyNzk3MWJl
ZGQ3N2U3Mjk2ZTQ2ggkA3Xv4JEv8fbYwEwYDVR0lBAwwCgYIKwYBBQUHAwIwCwYD
VR0PBAQDAgeAMA0GCSqGSIb3DQEBCwUAA4IBAQBJOdwTHyH0tnYQ7qg+bcNpqzwO
8OZl5QEj6/+o+pHGoJUaAevuP6n6dhUms8ozhYtAHEhDLas1NJjSfEuq5m5Yr6up
YMjHe/KaWRjUGyYAmHe2y0V4R8kw46i7DxpiD8p4YsT1bdKrsqwdB+yqHWR/OD1j
wABisctHuLQ8CZrb12WVn+E6tcSSKMeZjJOg038k2BP3p0qT07m3vcrHtdeOOH4N
rBlhFUpJK6qtvr4xWj/oXJrCzWbGFJocSfX8eYElmIRUKg8NTMR5c4XqSF/P0aCp
xGVecke1kbZHlNlVGTSGX7S614M3MLsZugo0HCY64ZYrbNba9Gvopr79xJbO
-----END CERTIFICATE-----
